(dp1
S'id_to_char'
p2
(dp3
I0
Ve
sI1
Vs
sI2
Vi
sI3
Va
sI4
Vr
sI5
Vn
sI6
Vt
sI7
Vo
sI8
Vl
sI9
Vc
sI10
Vd
sI11
Vu
sI12
Vg
sI13
Vp
sI14
Vm
sI15
Vh
sI16
Vb
sI17
Vy
sI18
Vf
sI19
Vv
sI20
Vw
sI21
Vk
sI22
Vz
sI23
Vx
sI24
Vq
sI25
Vj
sI26
V'
ssS'id_to_tag'
p4
(dp5
I0
Vi
sI1
Vb
ssS'id_to_word'
p6
(dp7
I0
S'<UNK>'
p8
sI1
Ve
sI2
Vs
sI3
Vi
sI4
Va
sI5
Vr
sI6
Vn
sI7
Vt
sI8
Vo
sI9
Vl
sI10
Vc
sI11
Vd
sI12
Vu
sI13
Vg
sI14
Vp
sI15
Vm
sI16
Vh
sI17
Vb
sI18
Vy
sI19
Vf
sI20
Vv
sI21
Vw
sI22
Vk
sI23
Vz
sI24
Vx
sI25
Vq
sI26
Vj
sI27
V'
ss.