(dp1
S'id_to_char'
p2
(dp3
I0
Ve
sI1
Vt
sI2
Va
sI3
Vo
sI4
Vn
sI5
Vh
sI6
Vs
sI7
Vi
sI8
Vr
sI9
Vl
sI10
Vd
sI11
Vw
sI12
Vu
sI13
Vm
sI14
Vg
sI15
Vf
sI16
Vc
sI17
Vy
sI18
Vb
sI19
Vp
sI20
Vv
sI21
Vk
sI22
Vz
sI23
Vj
sI24
Vx
sI25
Vq
ssS'id_to_tag'
p4
(dp5
I0
V+
sI1
V-
ssS'id_to_word'
p6
(dp7
I0
S'<UNK>'
p8
sI1
Vthe
p9
sI2
Vand
p10
sI3
Va
sI4
Vin
p11
sI5
Vof
p12
sI6
Ving
p13
sI7
Vto
p14
sI8
Vi
sI9
Vthat
p15
sI10
Vwith
p16
sI11
Vbe
p17
sI12
Vmy
p18
sI13
Vme
p19
sI14
Ver
p20
sI15
Von
p21
sI16
Vfor
p22
sI17
Vas
p23
sI18
Vly
p24
sI19
Vit
p25
sI20
Vhis
p26
sI21
Vis
p27
sI22
Vnot
p28
sI23
Vlove
p29
sI24
Vo
sI25
Vor
p30
sI26
Vfrom
p31
sI27
Vno
p32
sI28
Vbut
p33
sI29
Vwhen
p34
sI30
Vall
p35
sI31
Ved
p36
sI32
Ven
p37
sI33
Vso
p38
sI34
Vhe
p39
sI35
Vone
p40
sI36
Vre
p41
sI37
Vter
p42
sI38
Vy
sI39
Vat
p43
sI40
Vhave
p44
sI41
Vnight
p45
sI42
Vthou
p46
sI43
Vwas
p47
sI44
Vwhere
p48
sI45
Vwhat
p49
sI46
Ve
sI47
Vher
p50
sI48
Vlike
p51
sI49
Vnow
p52
sI50
Vthen
p53
sI51
Vver
p54
sI52
Vby
p55
sI53
Vthy
p56
sI54
Vde
p57
sI55
Vhim
p58
sI56
Vhow
p59
sI57
Vlong
p60
sI58
Vun
p61
sI59
Van
p62
sI60
Vless
p63
sI61
Vest
p64
sI62
Vman
p65
sI63
Vup
p66
sI64
Vyou
p67
sI65
Vcan
p68
sI66
Vwhich
p69
sI67
Vare
p70
sI68
Vcome
p71
sI69
Vthere
p72
sI70
Vwe
p73
sI71
Vout
p74
sI72
Vtheir
p75
sI73
Vthey
p76
sI74
Vder
p77
sI75
Veyes
p78
sI76
Vshe
p79
sI77
Vyet
p80
sI78
Vwho
p81
sI79
Vlight
p82
sI80
Vour
p83
sI81
Vdo
p84
sI82
Vfar
p85
sI83
Vif
p86
sI84
Vlow
p87
sI85
Vthis
p88
sI86
Vwere
p89
sI87
Vers
p90
sI88
Vsweet
p91
sI89
Vthee
p92
sI90
Vthem
p93
sI91
Vday
p94
sI92
Vdeath
p95
sI93
Vfi
p96
sI94
Vround
p97
sI95
Vshall
p98
sI96
Vber
p99
sI97
Vcold
p100
sI98
Vcon
p101
sI99
Ves
p102
sI100
Vsee
p103
sI101
Vsleep
p104
sI102
Vtle
p105
sI103
Vty
p106
sI104
Vway
p107
sI105
Vwill
p108
sI106
Vits
p109
sI107
Vla
p110
sI108
Vlet
p111
sI109
Vmay
p112
sI110
Vness
p113
sI111
Vnor
p114
sI112
Vsea
p115
sI113
Vus
p116
sI114
Val
p117
sI115
Vble
p118
sI116
Vden
p119
sI117
Vna
p120
sI118
Vsome
p121
sI119
Vsun
p122
sI120
Vthrough
p123
sI121
Vtion
p124
sI122
Vcould
p125
sI123
Vdid
p126
sI124
Vdoth
p127
sI125
Vhere
p128
sI126
Vlife
p129
sI127
Vmore
p130
sI128
Vper
p131
sI129
Vtain
p132
sI130
Vtime
p133
sI131
Vwould
p134
sI132
Vblack
p135
sI133
Vex
p136
sI134
Vfall
p137
sI135
Vhand
p138
sI136
Vheart
p139
sI137
Vself
p140
sI138
Vside
p141
sI139
Vtoo
p142
sI140
Vwin
p143
sI141
Vev
p144
sI142
Vfair
p145
sI143
Vgain
p146
sI144
Vgod
p147
sI145
Vhigh
p148
sI146
Vmor
p149
sI147
Vous
p150
sI148
Vplace
p151
sI149
Vry
p152
sI150
Vsuch
p153
sI151
Vtell
p154
sI152
Vther
p155
sI153
Vthese
p156
sI154
Vthough
p157
sI155
Vthought
p158
sI156
Vair
p159
sI157
Vam
p160
sI158
Vart
p161
sI159
Vbeau
p162
sI160
Vbright
p163
sI161
Vdeep
p164
sI162
Vdown
p165
sI163
Vdream
p166
sI164
Vearth
p167
sI165
Vend
p168
sI166
Vface
p169
sI167
Vfree
p170
sI168
Vhead
p171
sI169
Vlit
p172
sI170
Vlone
p173
sI171
Vmake
p174
sI172
Vmust
p175
sI173
Vro
p176
sI174
Vshould
p177
sI175
Vslow
p178
sI176
Vsound
p179
sI177
Vthose
p180
sI178
Vback
p181
sI179
Vblue
p182
sI180
Vbout
p183
sI181
Vdark
p184
sI182
Veach
p185
sI183
Vel
p186
sI184
Vfear
p187
sI185
Vfore
p188
sI186
Vful
p189
sI187
Vget
p190
sI188
Vgo
p191
sI189
Vhalf
p192
sI190
Vhath
p193
sI191
Vheav
p194
sI192
Vli
p195
sI193
Vlov
p196
sI194
Vloves
p197
sI195
Vmade
p198
sI196
Vmine
p199
sI197
Vmo
p200
sI198
Vnone
p201
sI199
Vonce
p202
sI200
Vpale
p203
sI201
Vpart
p204
sI202
Vrest
p205
sI203
Vsay
p206
sI204
Vsi
p207
sI205
Vsnow
p208
sI206
Vstill
p209
sI207
Vthing
p210
sI208
Vtill
p211
sI209
Vtwo
p212
sI210
Vwell
p213
sI211
Vyour
p214
sI212
Vac
p215
sI213
Vbed
p216
sI214
Vbove
p217
sI215
Vdi
p218
sI216
Vdie
p219
sI217
Vdis
p220
sI218
Vdreams
p221
sI219
Vfeel
p222
sI220
Vger
p223
sI221
Vgood
p224
sI222
Vgrace
p225
sI223
Vgreen
p226
sI224
Vhad
p227
sI225
Vheard
p228
sI226
Vish
p229
sI227
Vlast
p230
sI228
Vlie
p231
sI229
Vmem
p232
sI230
Vmer
p233
sI231
Vneath
p234
sI232
Vnev
p235
sI233
Vning
p236
sI234
Voh
p237
sI235
Voth
p238
sI236
Vown
p239
sI237
Vpas
p240
sI238
Vpass
p241
sI239
Vseen
p242
sI240
Vsion
p243
sI241
Vson
p244
sI242
Vthan
p245
sI243
Vture
p246
sI244
Vturn
p247
sI245
Vu
sI246
Vure
p248
sI247
Vven
p249
sI248
Vvi
p250
sI249
Vwent
p251
sI250
Vwild
p252
sI251
Vwood
p253
sI252
Vyears
p254
sI253
Var
p255
sI254
Varms
p256
sI255
Vbat
p257
sI256
Vbirds
p258
sI257
Vbours
p259
sI258
Vbrain
p260
sI259
Vbreak
p261
sI260
Vcall
p262
sI261
Vcept
p263
sI262
Vclose
p264
sI263
Vcomes
p265
sI264
Vcret
p266
sI265
Vcur
p267
sI266
Vcut
p268
sI267
Vdead
p269
sI268
Vdle
p270
sI269
Vdome
p271
sI270
Vdone
p272
sI271
Vered
p273
sI272
Veth
p274
sI273
Veve
p275
sI274
Vfan
p276
sI275
Vfast
p277
sI276
Vflows
p278
sI277
Vfoot
p279
sI278
Vfresh
p280
sI279
Vgar
p281
sI280
Vgive
p282
sI281
Vhas
p283
sI282
Vho
p284
sI283
Vhuge
p285
sI284
Vim
p286
sI285
Vking
p287
sI286
Vland
p288
sI287
Vlights
p289
sI288
Vlines
p290
sI289
Vlive
p291
sI290
Vma
p292
sI291
Vmid
p293
sI292
Vmost
p294
sI293
Vmuch
p295
sI294
Vni
p296
sI295
Vnoth
p297
sI296
Voff
p298
sI297
Vold
p299
sI298
Vpleas
p300
sI299
Vpos
p301
sI300
Vrow
p302
sI301
Vsaid
p303
sI302
Vse
p304
sI303
Vsing
p305
sI304
Vsong
p306
sI305
Vspread
p307
sI306
Vsprings
p308
sI307
Vstate
p309
sI308
Vsum
p310
sI309
Vtake
p311
sI310
Vtal
p312
sI311
Vters
p313
sI312
Vthus
p314
sI313
Vtrue
p315
sI314
Vtures
p316
sI315
Vtwas
p317
sI316
Vverse
p318
sI317
Vvoice
p319
sI318
Vwa
p320
sI319
Vwan
p321
sI320
Vways
p322
sI321
Vwest
p323
sI322
Vwhose
p324
sI323
Vwo
p325
sI324
Vwon
p326
sI325
Vworld
p327
sI326
Vad
p328
sI327
Vah
p329
sI328
Vap
p330
sI329
Vbeen
p331
sI330
Vbird
p332
sI331
Vblow
p333
sI332
Vbor
p334
sI333
Vbound
p335
sI334
Vbrave
p336
sI335
Vburn
p337
sI336
Vcast
p338
sI337
Vcheeks
p339
sI338
Vchild
p340
sI339
Vcloud
p341
sI340
Vcom
p342
sI341
Vcries
p343
sI342
Vdare
p344
sI343
Vdiv
p345
sI344
Vdog
p346
sI345
Vdrop
p347
sI346
Vear
p348
sI347
Vease
p349
sI348
Vei
p350
sI349
Vem
p351
sI350
Vfac
p352
sI351
Vfail
p353
sI352
Vfalls
p354
sI353
Vflow
p355
sI354
Vfour
p356
sI355
Vfur
p357
sI356
Vgazed
p358
sI357
Vgen
p359
sI358
Vges
p360
sI359
Vgold
p361
sI360
Vgone
p362
sI361
Vgray
p363
sI362
Vgreat
p364
sI363
Vhands
p365
sI364
Vhap
p366
sI365
Vhearts
p367
sI366
Vheat
p368
sI367
Vice
p369
sI368
Vjoy
p370
sI369
Vjust
p371
sI370
Vkneel
p372
sI371
Vknow
p373
sI372
Vleap
p374
sI373
Vleave
p375
sI374
Vleft
p376
sI375
Vlets
p377
sI376
Vlies
p378
sI377
Vloud
p379
sI378
Vmakes
p380
sI379
Vmans
p381
sI380
Vmas
p382
sI381
Vmazed
p383
sI382
Vmers
p384
sI383
Vmet
p385
sI384
Vmi
p386
sI385
Vmight
p387
sI386
Vmil
p388
sI387
Vmur
p389
sI388
Vnal
p390
sI389
Vnear
p391
sI390
Vnew
p392
sI391
Vnext
p393
sI392
Vny
p394
sI393
Vpair
p395
sI394
Vpen
p396
sI395
Vplain
p397
sI396
Vple
p398
sI397
Vquick
p399
sI398
Vra
p400
sI399
Vri
p401
sI400
Vrid
p402
sI401
Vriv
p403
sI402
Vrose
p404
sI403
Vrun
p405
sI404
Vsad
p406
sI405
Vsaw
p407
sI406
Vseemed
p408
sI407
Vshore
p409
sI408
Vshort
p410
sI409
Vsin
p411
sI410
Vskies
p412
sI411
Vsoft
p413
sI412
Vstand
p414
sI413
Vstar
p415
sI414
Vstrange
p416
sI415
Vstream
p417
sI416
Vsure
p418
sI417
Vswift
p419
sI418
Vthings
p420
sI419
Vthinks
p421
sI420
Vthun
p422
sI421
Vties
p423
sI422
Vtimes
p424
sI423
Vting
p425
sI424
Vtrav
p426
sI425
Vtrod
p427
sI426
Vtry
p428
sI427
Vur
p429
sI428
Vview
p430
sI429
Vwait
p431
sI430
Vwards
p432
sI431
Vware
p433
sI432
Vwhom
p434
sI433
Vwilt
p435
sI434
Vwind
p436
sI435
Vwoe
p437
sI436
Vword
p438
sI437
Vwork
p439
sI438
Vab
p440
sI439
Vact
p441
sI440
Vaf
p442
sI441
Vage
p443
sI442
Varch
p444
sI443
Vbark
p445
sI444
Vbells
p446
sI445
Vbered
p447
sI446
Vbers
p448
sI447
Vbest
p449
sI448
Vbide
p450
sI449
Vbled
p451
sI450
Vblind
p452
sI451
Vblood
p453
sI452
Vbo
p454
sI453
Vboth
p455
sI454
Vbra
p456
sI455
Vbring
p457
sI456
Vbrings
p458
sI457
Vbrows
p459
sI458
Vcal
p460
sI459
Vcame
p461
sI460
Vcause
p462
sI461
Vcaves
p463
sI462
Vcay
p464
sI463
Vcell
p465
sI464
Vchance
p466
sI465
Vcient
p467
sI466
Vcle
p468
sI467
Vclos
p469
sI468
Vclothes
p470
sI469
Vcloths
p471
sI470
Vclouds
p472
sI471
Vcount
p473
sI472
Vcourse
p474
sI473
Vcrag
p475
sI474
Vdear
p476
sI475
Vdered
p477
sI476
Vdes
p478
sI477
Vdif
p479
sI478
Vdim
p480
sI479
Vdise
p481
sI480
Vdoor
p482
sI481
Vdrous
p483
sI482
Vere
p484
sI483
Vests
p485
sI484
Veye
p486
sI485
Vfee
p487
sI486
Vfeet
p488
sI487
Vfell
p489
sI488
Vfer
p490
sI489
Vfew
p491
sI490
Vfirst
p492
sI491
Vflood
p493
sI492
Vforth
p494
sI493
Vfound
p495
sI494
Vfrag
p496
sI495
Vframe
p497
sI496
Vfull
p498
sI497
Vghost
p499
sI498
Vgiv
p500
sI499
Vgives
p501
sI500
Vglit
p502
sI501
Vgoes
p503
sI502
Vgrass
p504
sI503
Vgrot
p505
sI504
Vgrow
p506
sI505
Vhar
p507
sI506
Vhast
p508
sI507
Vhear
p509
sI508
Vheight
p510
sI509
Vhid
p511
sI510
Vhide
p512
sI511
Vhill
p513
sI512
Vhills
p514
sI513
Vhind
p515
sI514
Vhold
p516
sI515
Vhome
p517
sI516
Vhon
p518
sI517
Vhood
p519
sI518
Vhu
p520
sI519
Vhung
p521
sI520
Vid
p522
sI521
Vie
p523
sI522
Vill
p524
sI523
Vion
p525
sI524
Vished
p526
sI525
Vju
p527
sI526
Vken
p528
sI527
Vkings
p529
sI528
Vkiss
p530
sI529
Vknew
p531
sI530
Vknight
p532
sI531
Vlain
p533
sI532
Vlat
p534
sI533
Vlent
p535
sI534
Vlips
p536
sI535
Vlist
p537
sI536
Vlives
p538
sI537
Vlo
p539
sI538
Vlook
p540
sI539
Vlose
p541
sI540
Vmen
p542
sI541
Vmind
p543
sI542
Vmoon
p544
sI543
Vmoone
p545
sI544
Vmourn
p546
sI545
Vmove
p547
sI546
Vmu
p548
sI547
Vname
p549
sI548
Vneigh
p550
sI549
Vnum
p551
sI550
Vpa
p552
sI551
Vpal
p553
sI552
Vpar
p554
sI553
Vpast
p555
sI554
Vpause
p556
sI555
Vphoeb
p557
sI556
Vpi
p558
sI557
Vplayed
p559
sI558
Vpris
p560
sI559
Vque
p561
sI560
Vrap
p562
sI561
Vred
p563
sI562
Vres
p564
sI563
Vring
p565
sI564
Vrise
p566
sI565
Vrocks
p567
sI566
Vsands
p568
sI567
Vsec
p569
sI568
Vseek
p570
sI569
Vshad
p571
sI570
Vshake
p572
sI571
Vsharp
p573
sI572
Vshine
p574
sI573
Vship
p575
sI574
Vsic
p576
sI575
Vsilks
p577
sI576
Vsince
p578
sI577
Vsit
p579
sI578
Vsky
p580
sI579
Vslum
p581
sI580
Vsmooth
p582
sI581
Vsoon
p583
sI582
Vsought
p584
sI583
Vspent
p585
sI584
Vspir
p586
sI585
Vspon
p587
sI586
Vstant
p588
sI587
Vstars
p589
sI588
Vsteps
p590
sI589
Vstreet
p591
sI590
Vsud
p592
sI591
Vsus
p593
sI592
Vsy
p594
sI593
Vsym
p595
sI594
Vtak
p596
sI595
Vted
p597
sI596
Vten
p598
sI597
Vtest
p599
sI598
Vthine
p600
sI599
Vthink
p601
sI600
Vthirst
p602
sI601
Vthro
p603
sI602
Vthrong
p604
sI603
Vtil
p605
sI604
Vtold
p606
sI605
Vtook
p607
sI606
Vuse
p608
sI607
Vvens
p609
sI608
Vvice
p610
sI609
Vvive
p611
sI610
Vwalk
p612
sI611
Vwant
p613
sI612
Vward
p614
sI613
Vwatch
p615
sI614
Vwhile
p616
sI615
Vwhis
p617
sI616
Vwish
p618
sI617
Vwrought
p619
sI618
Vyond
p620
sI619
Vyoung
p621
sI620
Vail
p622
sI621
Vant
p623
sI622
Vask
p624
sI623
Vate
p625
sI624
Vbare
p626
sI625
Vbarks
p627
sI626
Vbear
p628
sI627
Vbeat
p629
sI628
Vbend
p630
sI629
Vbent
p631
sI630
Vbil
p632
sI631
Vbit
p633
sI632
Vbold
p634
sI633
Vborne
p635
sI634
Vboys
p636
sI635
Vbreaks
p637
sI636
Vbreast
p638
sI637
Vbreath
p639
sI638
Vbreathe
p640
sI639
Vbred
p641
sI640
Vbril
p642
sI641
Vbus
p643
sI642
Vca
p644
sI643
Vcat
p645
sI644
Vcatch
p646
sI645
Vcaught
p647
sI646
Vce
p648
sI647
Vcease
p649
sI648
Vcem
p650
sI649
Vcence
p651
sI650
Vces
p652
sI651
Vchain
p653
sI652
Vchange
p654
sI653
Vchant
p655
sI654
Vchasm
p656
sI655
Vchide
p657
sI656
Vchief
p658
sI657
Vchrist
p659
sI658
Vci
p660
sI659
Vcit
p661
sI660
Vclean
p662
sI661
Vclev
p663
sI662
Vclimbst
p664
sI663
Vcoat
p665
sI664
Vcov
p666
sI665
Vcult
p667
sI666
Vcurse
p668
sI667
Vcy
p669
sI668
Vd
sI669
Vdan
p670
sI670
Vdanc
p671
sI671
Vdays
p672
sI672
Vdeaths
p673
sI673
Vded
p674
sI674
Vdeemd
p675
sI675
Vdel
p676
sI676
Vdew
p677
sI677
Vdick
p678
sI678
Vdied
p679
sI679
Vdled
p680
sI680
Vdom
p681
sI681
Vdour
p682
sI682
Vdraw
p683
sI683
Vdrawn
p684
sI684
Vdread
p685
sI685
Vdreamed
p686
sI686
Vdriv
p687
sI687
Vdrunk
p688
sI688
Vdry
p689
sI689
Vdue
p690
sI690
Vdul
p691
sI691
Vdur
p692
sI692
Vdust
p693
sI693
Vels
p694
sI694
Velse
p695
sI695
Vent
p696
sI696
Vfad
p697
sI697
Vfade
p698
sI698
Vfae
p699
sI699
Vfaint
p700
sI700
Vfaith
p701
sI701
Vfal
p702
sI702
Vfea
p703
sI703
Vfears
p704
sI704
Vfed
p705
sI705
Vfin
p706
sI706
Vfine
p707
sI707
Vfire
p708
sI708
Vfive
p709
sI709
Vflame
p710
sI710
Vflee
p711
sI711
Vfleet
p712
sI712
Vflesh
p713
sI713
Vflies
p714
sI714
Vfol
p715
sI715
Vfond
p716
sI716
Vforce
p717
sI717
Vform
p718
sI718
Vfoun
p719
sI719
Vfount
p720
sI720
Vfreez
p721
sI721
Vfriends
p722
sI722
Vfro
p723
sI723
Vgal
p724
sI724
Vgasp
p725
sI725
Vgath
p726
sI726
Vgaz
p727
sI727
Vgels
p728
sI728
Vgi
p729
sI729
Vgim
p730
sI730
Vgin
p731
sI731
Vgins
p732
sI732
Vglad
p733
sI733
Vgloom
p734
sI734
Vgoves
p735
sI735
Vgrave
p736
sI736
Vground
p737
sI737
Vgrowth
p738
sI738
Vguisht
p739
sI739
Vgyre
p740
sI740
Vhail
p741
sI741
Vhang
p742
sI742
Vhaps
p743
sI743
Vhard
p744
sI744
Vhaste
p745
sI745
Vhate
p746
sI746
Vheavens
p747
sI747
Vheld
p748
sI748
Vhelp
p749
sI749
Vhem
p750
sI750
Vhoods
p751
sI751
Vhope
p752
sI752
Vhour
p753
sI753
Vies
p754
sI754
Vig
p755
sI755
Vil
p756
sI756
Vjab
p757
sI757
Vjot
p758
sI758
Vjub
p759
sI759
Vked
p760
sI760
Vkeep
p761
sI761
Vkin
p762
sI762
Vkind
p763
sI763
Vkled
p764
sI764
Vknots
p765
sI765
Vknows
p766
sI766
Vkra
p767
sI767
Vlake
p768
sI768
Vlan
p769
sI769
Vlarge
p770
sI770
Vle
p771
sI771
Vlearn
p772
sI772
Vleaves
p773
sI773
Vlen
p774
sI774
Vlence
p775
sI775
Vler
p776
sI776
Vlev
p777
sI777
Vlia
p778
sI778
Vlig
p779
sI779
Vling
p780
sI780
Vlion
p781
sI781
Vlodg
p782
sI782
Vlookes
p783
sI783
Vlop
p784
sI784
Vlost
p785
sI785
Vlovd
p786
sI786
Vloved
p787
sI787
Vmai
p788
sI788
Vmaid
p789
sI789
Vmains
p790
sI790
Vmal
p791
sI791
Vmanned
p792
sI792
Vmatch
p793
sI793
Vmaz
p794
sI794
Vmean
p795
sI795
Vmeas
p796
sI796
Vmed
p797
sI797
Vmeet
p798
sI798
Vmelt
p799
sI799
Vmend
p800
sI800
Vment
p801
sI801
Vmiles
p802
sI802
Vmim
p803
sI803
Vmin
p804
sI804
Vmir
p805
sI805
Vmit
p806
sI806
Vmock
p807
sI807
Vmon
p808
sI808
Vmorn
p809
sI809
Vmoun
p810
sI810
Vmous
p811
sI811
Vmov
p812
sI812
Vmoved
p813
sI813
Vmoves
p814
sI814
Vnar
p815
sI815
Vnay
p816
sI816
Vneeds
p817
sI817
Vnei
p818
sI818
Vnest
p819
sI819
Vnoon
p820
sI820
Voer
p821
sI821
Vov
p822
sI822
Vow
p823
sI823
Vpace
p824
sI824
Vpaine
p825
sI825
Vpearl
p826
sI826
Vpears
p827
sI827
Vpered
p828
sI828
Vpiece
p829
sI829
Vpile
p830
sI830
Vpoint
p831
sI831
Vpol
p832
sI832
Vpose
p833
sI833
Vpre
p834
sI834
Vpride
p835
sI835
Vpro
p836
sI836
Vprompt
p837
sI837
Vproved
p838
sI838
Vpy
p839
sI839
Vquaint
p840
sI840
Vrayne
p841
sI841
Vrea
p842
sI842
Vreade
p843
sI843
Vrent
p844
sI844
Vret
p845
sI845
Vroar
p846
sI846
Vron
p847
sI847
Vroom
p848
sI848
Vror
p849
sI849
Vrors
p850
sI850
Vroun
p851
sI851
Vrowes
p852
sI852
Vrows
p853
sI853
Vroy
p854
sI854
Vrys
p855
sI855
Vsa
p856
sI856
Vsage
p857
sI857
Vsave
p858
sI858
Vscorne
p859
sI859
Vscythe
p860
sI860
Vsedge
p861
sI861
Vseems
p862
sI862
Vselves
p863
sI863
Vsense
p864
sI864
Vsesse
p865
sI865
Vset
p866
sI866
Vshade
p867
sI867
Vshare
p868
sI868
Vsharpe
p869
sI869
Vsick
p870
sI870
Vsid
p871
sI871
Vsil
p872
sI872
Vsir
p873
sI873
Vslith
p874
sI874
Vsmell
p875
sI875
Vsmile
p876
sI876
Vsort
p877
sI877
Vsoul
p878
sI878
Vsouls
p879
sI879
Vspair
p880
sI880
Vsphere
p881
sI881
Vsplen
p882
sI882
Vstain
p883
sI883
Vstead
p884
sI884
Vsteeds
p885
sI885
Vstood
p886
sI886
Vstrain
p887
sI887
Vstreams
p888
sI888
Vstretched
p889
sI889
Vsuit
p890
sI890
Vsur
p891
sI891
Vswamp
p892
sI892
Vswell
p893
sI893
Vsword
p894
sI894
Vsyl
p895
sI895
Vta
p896
sI896
Vtakes
p897
sI897
Vtears
p898
sI898
Vtent
p899
sI899
Vtheres
p900
sI900
Vthin
p901
sI901
Vthoughts
p902
sI902
Vthrall
p903
sI903
Vthur
p904
sI904
Vtide
p905
sI905
Vtient
p906
sI906
Vtions
p907
sI907
Vtis
p908
sI908
Vtled
p909
sI909
Vton
p910
sI910
Vtor
p911
sI911
Vtoves
p912
sI912
Vtow
p913
sI913
Vtowards
p914
sI914
Vtown
p915
sI915
Vtread
p916
sI916
Vtree
p917
sI917
Vtri
p918
sI918
Vtries
p919
sI919
Vtron
p920
sI920
Vtrou
p921
sI921
Vtruth
p922
sI922
Vtune
p923
sI923
Vtured
p924
sI924
Vures
p925
sI925
Vused
p926
sI926
Vva
p927
sI927
Vval
p928
sI928
Vvent
p929
sI929
Vvest
p930
sI930
Vvexed
p931
sI931
Vvir
p932
sI932
Vvis
p933
sI933
Vwabe
p934
sI934
Vwag
p935
sI935
Vwail
p936
sI936
Vwak
p937
sI937
Vwanne
p938
sI938
Vwar
p939
sI939
Vwaste
p940
sI940
Vwave
p941
sI941
Vwaves
p942
sI942
Vwear
p943
sI943
Vwears
p944
sI944
Vweave
p945
sI945
Vweigh
p946
sI946
Vweight
p947
sI947
Vwhite
p948
sI948
Vwhy
p949
sI949
Vwide
p950
sI950
Vwinds
p951
sI951
Vwing
p952
sI952
Vwings
p953
sI953
Vwit
p954
sI954
Vwock
p955
sI955
Vwords
p956
sI956
Vworth
p957
sI957
Vwouldst
p958
sI958
Vwrin
p959
sI959
Vyea
p960
sI960
Vyel
p961
sI961
Vyes
p962
sI962
Vyouth
p963
sI963
Vys
p964
sI964
Vzen
p965
sI965
Vaim
p966
sI966
Vanc
p967
sI967
Vance
p968
sI968
Vard
p969
sI969
Varmes
p970
sI970
Vaught
p971
sI971
Vaut
p972
sI972
Vax
p973
sI973
Vaz
p974
sI974
Vbal
p975
sI975
Vbald
p976
sI976
Vban
p977
sI977
Vbanke
p978
sI978
Vbar
p979
sI979
Vbase
p980
sI980
Vbea
p981
sI981
Vbeams
p982
sI982
Vbears
p983
sI983
Vbeast
p984
sI984
Vbeds
p985
sI985
Vbees
p986
sI986
Vbel
p987
sI987
Vbell
p988
sI988
Vbelle
p989
sI989
Vben
p990
sI990
Vbet
p991
sI991
Vbi
p992
sI992
Vbics
p993
sI993
Vbid
p994
sI994
Vbig
p995
sI995
Vbings
p996
sI996
Vbirth
p997
sI997
Vbite
p998
sI998
Vbl
p999
sI999
Vbla
p1000
sI1000
Vblank
p1001
sI1001
Vbleak
p1002
sI1002
Vbleared
p1003
sI1003
Vbles
p1004
sI1004
Vblithe
p1005
sI1005
Vbloom
p1006
sI1006
Vblows
p1007
sI1007
Vblush
p1008
sI1008
Vbly
p1009
sI1009
Vbode
p1010
sI1010
Vbolt
p1011
sI1011
Vbolts
p1012
sI1012
Vbonds
p1013
sI1013
Vbones
p1014
sI1014
Vbooks
p1015
sI1015
Vboon
p1016
sI1016
Vboot
p1017
sI1017
Vbors
p1018
sI1018
Vbot
p1019
sI1019
Vboughs
p1020
sI1020
Vbow
p1021
sI1021
Vbrace
p1022
sI1022
Vbrag
p1023
sI1023
Vbrance
p1024
sI1024
Vbrand
p1025
sI1025
Vbraz
p1026
sI1026
Vbreeze
p1027
sI1027
Vbrim
p1028
sI1028
Vbrink
p1029
sI1029
Vbroi
p1030
sI1030
Vbrook
p1031
sI1031
Vbrooks
p1032
sI1032
Vbrought
p1033
sI1033
Vbrowed
p1034
sI1034
Vbrown
p1035
sI1035
Vbrute
p1036
sI1036
Vbu
p1037
sI1037
Vbuc
p1038
sI1038
Vbuck
p1039
sI1039
Vbuffed
p1040
sI1040
Vbuild
p1041
sI1041
Vbuilt
p1042
sI1042
Vbulk
p1043
sI1043
Vbun
p1044
sI1044
Vbur
p1045
sI1045
Vburned
p1046
sI1046
Vburns
p1047
sI1047
Vburnt
p1048
sI1048
Vburst
p1049
sI1049
Vbursts
p1050
sI1050
Vbyes
p1051
sI1051
Vbys
p1052
sI1052
Vcapped
p1053
sI1053
Vcar
p1054
sI1054
Vcare
p1055
sI1055
Vcarv
p1056
sI1056
Vcas
p1057
sI1057
Vcase
p1058
sI1058
Vcav
p1059
sI1059
Vcean
p1060
sI1060
Vceived
p1061
sI1061
Vcel
p1062
sI1062
Vcells
p1063
sI1063
Vcer
p1064
sI1064
Vchair
p1065
sI1065
Vcham
p1066
sI1066
Vchang
p1067
sI1067
Vcharged
p1068
sI1068
Vchas
p1069
sI1069
Vchaste
p1070
sI1070
Vche
p1071
sI1071
Vchee
p1072
sI1072
Vchieve
p1073
sI1073
Vchis
p1074
sI1074
Vchiv
p1075
sI1075
Vcho
p1076
sI1076
Vchor
p1077
sI1077
Vchryst
p1078
sI1078
Vchurch
p1079
sI1079
Vcied
p1080
sI1080
Vcies
p1081
sI1081
Vcim
p1082
sI1082
Vcir
p1083
sI1083
Vciv
p1084
sI1084
Vclad
p1085
sI1085
Vclasp
p1086
sI1086
Vclasped
p1087
sI1087
Vclasps
p1088
sI1088
Vclaws
p1089
sI1089
Vcleav
p1090
sI1090
Vcliff
p1091
sI1091
Vclimb
p1092
sI1092
Vclimbs
p1093
sI1093
Vclime
p1094
sI1094
Vclin
p1095
sI1095
Vclines
p1096
sI1096
Vclips
p1097
sI1097
Vclock
p1098
sI1098
Vclus
p1099
sI1099
Vco
p1100
sI1100
Vcoarse
p1101
sI1101
Vcocks
p1102
sI1102
Vcons
p1103
sI1103
Vcor
p1104
sI1104
Vcord
p1105
sI1105
Vcou
p1106
sI1106
Vcoun
p1107
sI1107
Vcove
p1108
sI1108
Vcover
p1109
sI1109
Vcrack
p1110
sI1110
Vcraft
p1111
sI1111
Vcraue
p1112
sI1112
Vcrawls
p1113
sI1113
Vcre
p1114
sI1114
Vcrea
p1115
sI1115
Vcred
p1116
sI1116
Vcree
p1117
sI1117
Vcrest
p1118
sI1118
Vcried
p1119
sI1119
Vcrim
p1120
sI1120
Vcrisp
p1121
sI1121
Vcrook
p1122
sI1122
Vcross
p1123
sI1123
Vcrossed
p1124
sI1124
Vcrushed
p1125
sI1125
Vcry
p1126
sI1126
Vcuck
p1127
sI1127
Vcun
p1128
sI1128
Vcup
p1129
sI1129
Vdac
p1130
sI1130
Vdaf
p1131
sI1131
Vdai
p1132
sI1132
Vdale
p1133
sI1133
Vdam
p1134
sI1134
Vdame
p1135
sI1135
Vdance
p1136
sI1136
Vdant
p1137
sI1137
Vdap
p1138
sI1138
Vdarn
p1139
sI1139
Vdarts
p1140
sI1140
Vdate
p1141
sI1141
Vdau
p1142
sI1142
Vdawn
p1143
sI1143
Vdeaf
p1144
sI1144
Vdee
p1145
sI1145
Vdeeds
p1146
sI1146
Vdeeps
p1147
sI1147
Vdeigned
p1148
sI1148
Vdels
p1149
sI1149
Vdens
p1150
sI1150
Vdents
p1151
sI1151
Vders
p1152
sI1152
Vdeur
p1153
sI1153
Vdic
p1154
sI1154
Vdies
p1155
sI1155
Vdil
p1156
sI1156
Vding
p1157
sI1157
Vdive
p1158
sI1158
Vdiz
p1159
sI1159
Vdles
p1160
sI1160
Vdoes
p1161
sI1161
Vdoest
p1162
sI1162
Vdong
p1163
sI1163
Vdoom
p1164
sI1164
Vdoors
p1165
sI1165
Vdotes
p1166
sI1166
Vdoubt
p1167
sI1167
Vdove
p1168
sI1168
Vdow
p1169
sI1169
Vdowne
p1170
sI1170
Vdrags
p1171
sI1171
Vdrenched
p1172
sI1172
Vdrew
p1173
sI1173
Vdring
p1174
sI1174
Vdriz
p1175
sI1175
Vdroop
p1176
sI1176
Vdrops
p1177
sI1177
Vdrowned
p1178
sI1178
Vdrum
p1179
sI1179
Vdu
p1180
sI1180
Vdumb
p1181
sI1181
Vdwelt
p1182
sI1182
Vdwin
p1183
sI1183
Vdy
p1184
sI1184
Veant
p1185
sI1185
Vearths
p1186
sI1186
Veas
p1187
sI1187
Veast
p1188
sI1188
Vec
p1189
sI1189
Vech
p1190
sI1190
Veer
p1191
sI1191
Veight
p1192
sI1192
Velf
p1193
sI1193
Velling
p1194
sI1194
Vemn
p1195
sI1195
Vends
p1196
sI1196
Vens
p1197
sI1197
Verns
p1198
sI1198
Vert
p1199
sI1199
Verts
p1200
sI1200
Vet
p1201
sI1201
Vets
p1202
sI1202
Vever
p1203
sI1203
Veves
p1204
sI1204
Vevn
p1205
sI1205
Vevs
p1206
sI1206
Vews
p1207
sI1207
Vey
p1208
sI1208
Vfab
p1209
sI1209
Vfact
p1210
sI1210
Vfain
p1211
sI1211
Vfalse
p1212
sI1212
Vfash
p1213
sI1213
Vfate
p1214
sI1214
Vfe
p1215
sI1215
Vfeare
p1216
sI1216
Vfeat
p1217
sI1217
Vfeath
p1218
sI1218
Vfeele
p1219
sI1219
Vfeelst
p1220
sI1220
Vfel
p1221
sI1221
Vfells
p1222
sI1222
Vfelt
p1223
sI1223
Vfence
p1224
sI1224
Vfend
p1225
sI1225
Vfic
p1226
sI1226
Vfields
p1227
sI1227
Vfier
p1228
sI1228
Vfight
p1229
sI1229
Vfind
p1230
sI1230
Vfir
p1231
sI1231
Vfis
p1232
sI1232
Vflam
p1233
sI1233
Vflash
p1234
sI1234
Vflat
p1235
sI1235
Vflect
p1236
sI1236
Vfles
p1237
sI1237
Vfleur
p1238
sI1238
Vflight
p1239
sI1239
Vfling
p1240
sI1240
Vflock
p1241
sI1241
Vflour
p1242
sI1242
Vflowrs
p1243
sI1243
Vflung
p1244
sI1244
Vfo
p1245
sI1245
Vfoe
p1246
sI1246
Vfoil
p1247
sI1247
Vfolds
p1248
sI1248
Vfools
p1249
sI1249
Vfoul
p1250
sI1250
Vfox
p1251
sI1251
Vfrab
p1252
sI1252
Vfraile
p1253
sI1253
Vfreck
p1254
sI1254
Vfret
p1255
sI1255
Vfru
p1256
sI1256
Vfu
p1257
sI1257
Vfuse
p1258
sI1258
Vga
p1259
sI1259
Vgainst
p1260
sI1260
Vgale
p1261
sI1261
Vgall
p1262
sI1262
Vgap
p1263
sI1263
Vgard
p1264
sI1264
Vgash
p1265
sI1265
Vgayne
p1266
sI1266
Vgeous
p1267
sI1267
Vgey
p1268
sI1268
Vghast
p1269
sI1269
Vgift
p1270
sI1270
Vgifts
p1271
sI1271
Vgir
p1272
sI1272
Vgirls
p1273
sI1273
Vglade
p1274
sI1274
Vglass
p1275
sI1275
Vgled
p1276
sI1276
Vgles
p1277
sI1277
Vglid
p1278
sI1278
Vglim
p1279
sI1279
Vglo
p1280
sI1280
Vgloam
p1281
sI1281
Vglobe
p1282
sI1282
Vglor
p1283
sI1283
Vglove
p1284
sI1284
Vglow
p1285
sI1285
Vgor
p1286
sI1286
Vgot
p1287
sI1287
Vgown
p1288
sI1288
Vgrabe
p1289
sI1289
Vgrac
p1290
sI1290
Vgran
p1291
sI1291
Vgrasp
p1292
sI1292
Vgrate
p1293
sI1293
Vgraue
p1294
sI1294
Vgraves
p1295
sI1295
Vgrees
p1296
sI1296
Vgrief
p1297
sI1297
Vgrieues
p1298
sI1298
Vgrieve
p1299
sI1299
Vgroves
p1300
sI1300
Vgrown
p1301
sI1301
Vgrowst
p1302
sI1302
Vguish
p1303
sI1303
Vgulft
p1304
sI1304
Vguns
p1305
sI1305
Vgy
p1306
sI1306
Vha
p1307
sI1307
Vhadst
p1308
sI1308
Vhag
p1309
sI1309
Vhair
p1310
sI1310
Vham
p1311
sI1311
Vhamp
p1312
sI1312
Vhan
p1313
sI1313
Vhanged
p1314
sI1314
Vhark
p1315
sI1315
Vharsh
p1316
sI1316
Vhaue
p1317
sI1317
Vhaun
p1318
sI1318
Vhaunt
p1319
sI1319
Vhawk
p1320
sI1320
Vhay
p1321
sI1321
Vhaz
p1322
sI1322
Vhea
p1323
sI1323
Vhears
p1324
sI1324
Vhearse
p1325
sI1325
Vhearth
p1326
sI1326
Vheavn
p1327
sI1327
Vheel
p1328
sI1328
Vhel
p1329
sI1329
Vhell
p1330
sI1330
Vhelpe
p1331
sI1331
Vhence
p1332
sI1332
Vherbs
p1333
sI1333
Vherds
p1334
sI1334
Vhint
p1335
sI1335
Vhoarse
p1336
sI1336
Vhol
p1337
sI1337
Vholds
p1338
sI1338
Vhop
p1339
sI1339
Vhor
p1340
sI1340
Vhorse
p1341
sI1341
Vhot
p1342
sI1342
Vhou
p1343
sI1343
Vhowl
p1344
sI1344
Vhur
p1345
sI1345
Vhurl
p1346
sI1346
Vide
p1347
sI1347
Vier
p1348
sI1348
Vile
p1349
sI1349
Vinch
p1350
sI1350
Vioy
p1351
sI1351
Virs
p1352
sI1352
Vjaws
p1353
sI1353
Vject
p1354
sI1354
Vjew
p1355
sI1355
Vjour
p1356
sI1356
Vjous
p1357
sI1357
Vjoys
p1358
sI1358
Vjudge
p1359
sI1359
Vkeen
p1360
sI1360
Vkew
p1361
sI1361
Vkill
p1362
sI1362
Vkle
p1363
sI1363
Vknees
p1364
sI1364
Vknell
p1365
sI1365
Vknights
p1366
sI1366
Vknock
p1367
sI1367
Vknocked
p1368
sI1368
Vknown
p1369
sI1369
Vku
p1370
sI1370
Vlab
p1371
sI1371
Vlack
p1372
sI1372
Vlaid
p1373
sI1373
Vlair
p1374
sI1374
Vlamb
p1375
sI1375
Vlamp
p1376
sI1376
Vlamps
p1377
sI1377
Vlands
p1378
sI1378
Vlang
p1379
sI1379
Vlark
p1380
sI1380
Vlash
p1381
sI1381
Vlaugh
p1382
sI1382
Vlaughs
p1383
sI1383
Vlay
p1384
sI1384
Vlayes
p1385
sI1385
Vlead
p1386
sI1386
Vleaf
p1387
sI1387
Vlean
p1388
sI1388
Vleapt
p1389
sI1389
Vlearnd
p1390
sI1390
Vlease
p1391
sI1391
Vleast
p1392
sI1392
Vled
p1393
sI1393
Vlend
p1394
sI1394
Vlers
p1395
sI1395
Vles
p1396
sI1396
Vlest
p1397
sI1397
Vligh
p1398
sI1398
Vlil
p1399
sI1399
Vlimbs
p1400
sI1400
Vline
p1401
sI1401
Vlip
p1402
sI1402
Vliq
p1403
sI1403
Vlived
p1404
sI1404
Vlodge
p1405
sI1405
Vlodged
p1406
sI1406
Vloft
p1407
sI1407
Vloi
p1408
sI1408
Vloit
p1409
sI1409
Vlooh
p1410
sI1410
Vlooked
p1411
sI1411
Vlooks
p1412
sI1412
Vloom
p1413
sI1413
Vlooped
p1414
sI1414
Vloose
p1415
sI1415
Vlor
p1416
sI1416
Vlos
p1417
sI1417
Vlour
p1418
sI1418
Vlows
p1419
sI1419
Vlumph
p1420
sI1420
Vm
sI1421
Vmaids
p1421
sI1422
Vmain
p1422
sI1423
Vmaj
p1423
sI1424
Vmand
p1424
sI1425
Vmant
p1425
sI1426
Vmar
p1426
sI1427
Vmarch
p1427
sI1428
Vmark
p1428
sI1429
Vmask
p1429
sI1430
Vmass
p1430
sI1431
Vmat
p1431
sI1432
Vmate
p1432
sI1433
Vmea
p1433
sI1434
Vmead
p1434
sI1435
Vmeads
p1435
sI1436
Vmeek
p1436
sI1437
Vmeetes
p1437
sI1438
Vmens
p1438
sI1439
Vments
p1439
sI1440
Vmightst
p1440
sI1441
Vmild
p1441
sI1442
Vmilk
p1442
sI1443
Vmill
p1443
sI1444
Vminds
p1444
sI1445
Vmis
p1445
sI1446
Vmissed
p1446
sI1447
Vmite
p1447
sI1448
Vmits
p1448
sI1449
Vmixed
p1449
sI1450
Vmocked
p1450
sI1451
Vmod
p1451
sI1452
Vmoil
p1452
sI1453
Vmoist
p1453
sI1454
Vmome
p1454
sI1455
Vmong
p1455
sI1456
Vmoods
p1456
sI1457
Vmoors
p1457
sI1458
Vmoth
p1458
sI1459
Vmoul
p1459
sI1460
Vmould
p1460
sI1461
Vmoulds
p1461
sI1462
Vmount
p1462
sI1463
Vmult
p1463
sI1464
Vmyre
p1464
sI1465
Vnace
p1465
sI1466
Vnai
p1466
sI1467
Vnall
p1467
sI1468
Vne
p1468
sI1469
Vnec
p1469
sI1470
Vneck
p1470
sI1471
Vneed
p1471
sI1472
Vner
p1472
sI1473
Vneth
p1473
sI1474
Vney
p1474
sI1475
Vnice
p1475
sI1476
Vnied
p1476
sI1477
Vnigh
p1477
sI1478
Vnings
p1478
sI1479
Vnit
p1479
sI1480
Vnoes
p1480
sI1481
Vnoise
p1481
sI1482
Vnook
p1482
sI1483
Vnorth
p1483
sI1484
Vnough
p1484
sI1485
Vnour
p1485
sI1486
Vnuns
p1486
sI1487
Vnut
p1487
sI1488
Vnymphs
p1488
sI1489
Voak
p1489
sI1490
Vob
p1490
sI1491
Voc
p1491
sI1492
Voft
p1492
sI1493
Voil
p1493
sI1494
Vol
p1494
sI1495
Vond
p1495
sI1496
Voo
p1496
sI1497
Vooze
p1497
sI1498
Vors
p1498
sI1499
Vou
p1499
sI1500
Vowl
p1500
sI1501
Vowst
p1501
sI1502
Vox
p1502
sI1503
Voz
p1503
sI1504
Vpac
p1504
sI1505
Vpag
p1505
sI1506
Vpain
p1506
sI1507
Vpaint
p1507
sI1508
Vpall
p1508
sI1509
Vpane
p1509
sI1510
Vpare
p1510
sI1511
Vpassd
p1511
sI1512
Vpasse
p1512
sI1513
Vpaused
p1513
sI1514
Vpave
p1514
sI1515
Vpay
p1515
sI1516
Vpays
p1516
sI1517
Vpeace
p1517
sI1518
Vpeak
p1518
sI1519
Vpear
p1519
sI1520
Vpearls
p1520
sI1521
Vpeck
p1521
sI1522
Vped
p1522
sI1523
Vpeo
p1523
sI1524
Vpest
p1524
sI1525
Vpests
p1525
sI1526
Vpet
p1526
sI1527
Vpha
p1527
sI1528
Vphes
p1528
sI1529
Vphin
p1529
sI1530
Vphire
p1530
sI1531
Vpho
p1531
sI1532
Vphrous
p1532
sI1533
Vpic
p1533
sI1534
Vpid
p1534
sI1535
Vpie
p1535
sI1536
Vpier
p1536
sI1537
Vpiled
p1537
sI1538
Vpined
p1538
sI1539
Vplac
p1539
sI1540
Vplan
p1540
sI1541
Vplant
p1541
sI1542
Vpleased
p1542
sI1543
Vpled
p1543
sI1544
Vples
p1544
sI1545
Vplies
p1545
sI1546
Vpling
p1546
sI1547
Vplo
p1547
sI1548
Vplod
p1548
sI1549
Vplough
p1549
sI1550
Vplume
p1550
sI1551
Vplun
p1551
sI1552
Vpon
p1552
sI1553
Vpoor
p1553
sI1554
Vpor
p1554
sI1555
Vpost
p1555
sI1556
Vpourd
p1556
sI1557
Vpraise
p1557
sI1558
Vpray
p1558
sI1559
Vprayers
p1559
sI1560
Vpressd
p1560
sI1561
Vpriest
p1561
sI1562
Vprime
p1562
sI1563
Vprin
p1563
sI1564
Vprop
p1564
sI1565
Vproud
p1565
sI1566
Vprove
p1566
sI1567
Vprow
p1567
sI1568
Vpull
p1568
sI1569
Vpulse
p1569
sI1570
Vpup
p1570
sI1571
Vpurl
p1571
sI1572
Vpush
p1572
sI1573
Vput
p1573
sI1574
Vqua
p1574
sI1575
Vqual
p1575
sI1576
Vquench
p1576
sI1577
Vqui
p1577
sI1578
Vquit
p1578
sI1579
Vrack
p1579
sI1580
Vracts
p1580
sI1581
Vraf
p1581
sI1582
Vrain
p1582
sI1583
Vraisd
p1583
sI1584
Vran
p1584
sI1585
Vrang
p1585
sI1586
Vrant
p1586
sI1587
Vrare
p1587
sI1588
Vrat
p1588
sI1589
Vrath
p1589
sI1590
Vraths
p1590
sI1591
Vrav
p1591
sI1592
Vraves
p1592
sI1593
Vread
p1593
sI1594
Vreads
p1594
sI1595
Vreck
p1595
sI1596
Vreeds
p1596
sI1597
Vrein
p1597
sI1598
Vrel
p1598
sI1599
Vrev
p1599
sI1600
Vric
p1600
sI1601
Vrich
p1601
sI1602
Vridge
p1602
sI1603
Vriers
p1603
sI1604
Vries
p1604
sI1605
Vrill
p1605
sI1606
Vrills
p1606
sI1607
Vringed
p1607
sI1608
Vris
p1608
sI1609
Vrites
p1609
sI1610
Vroads
p1610
sI1611
Vroared
p1611
sI1612
Vrobe
p1612
sI1613
Vrobs
p1613
sI1614
Vrock
p1614
sI1615
Vrod
p1615
sI1616
Vrol
p1616
sI1617
Vroll
p1617
sI1618
Vrolled
p1618
sI1619
Vrolls
p1619
sI1620
Vroofs
p1620
sI1621
Vrook
p1621
sI1622
Vroots
p1622
sI1623
Vrough
p1623
sI1624
Vrous
p1624
sI1625
Vrowed
p1625
sI1626
Vrs
p1626
sI1627
Vru
p1627
sI1628
Vrung
p1628
sI1629
Vruns
p1629
sI1630
Vsag
p1630
sI1631
Vsails
p1631
sI1632
Vsak
p1632
sI1633
Vsake
p1633
sI1634
Vsal
p1634
sI1635
Vsalt
p1635
sI1636
Vsame
p1636
sI1637
Vsand
p1637
sI1638
Vsans
p1638
sI1639
Vsap
p1639
sI1640
Vsat
p1640
sI1641
Vsav
p1641
sI1642
Vsays
p1642
sI1643
Vscared
p1643
sI1644
Vscends
p1644
sI1645
Vscorn
p1645
sI1646
Vscours
p1646
sI1647
Vscratch
p1647
sI1648
Vscreen
p1648
sI1649
Vscries
p1649
sI1650
Vsculp
p1650
sI1651
Vseal
p1651
sI1652
Vseals
p1652
sI1653
Vseared
p1653
sI1654
Vseed
p1654
sI1655
Vseem
p1655
sI1656
Vsees
p1656
sI1657
Vseest
p1657
sI1658
Vseeth
p1658
sI1659
Vseize
p1659
sI1660
Vsel
p1660
sI1661
Vselfe
p1661
sI1662
Vsent
p1662
sI1663
Vserve
p1663
sI1664
Vses
p1664
sI1665
Vsess
p1665
sI1666
Vsessed
p1666
sI1667
Vsev
p1667
sI1668
Vsha
p1668
sI1669
Vshades
p1669
sI1670
Vshaft
p1670
sI1671
Vshak
p1671
sI1672
Vshakes
p1672
sI1673
Vshamed
p1673
sI1674
Vshapes
p1674
sI1675
Vshares
p1675
sI1676
Vsheer
p1676
sI1677
Vshep
p1677
sI1678
Vshes
p1678
sI1679
Vshi
p1679
sI1680
Vshin
p1680
sI1681
Vshod
p1681
sI1682
Vshook
p1682
sI1683
Vshot
p1683
sI1684
Vshoud
p1684
sI1685
Vshoul
p1685
sI1686
Vshout
p1686
sI1687
Vshow
p1687
sI1688
Vshroud
p1688
sI1689
Vshrunk
p1689
sI1690
Vshun
p1690
sI1691
Vshuns
p1691
sI1692
Vshut
p1692
sI1693
Vshuts
p1693
sI1694
Vsides
p1694
sI1695
Vsigh
p1695
sI1696
Vsighed
p1696
sI1697
Vsight
p1697
sI1698
Vsights
p1698
sI1699
Vsilk
p1699
sI1700
Vsim
p1700
sI1701
Vsinge
p1701
sI1702
Vsings
p1702
sI1703
Vsions
p1703
sI1704
Vsired
p1704
sI1705
Vsive
p1705
sI1706
Vskates
p1706
sI1707
Vskin
p1707
sI1708
Vslack
p1708
sI1709
Vslant
p1709
sI1710
Vsleepe
p1710
sI1711
Vsleeps
p1711
sI1712
Vslew
p1712
sI1713
Vslip
p1713
sI1714
Vsmall
p1714
sI1715
Vsmalle
p1715
sI1716
Vsmeared
p1716
sI1717
Vsmiles
p1717
sI1718
Vsmoke
p1718
sI1719
Vsmudge
p1719
sI1720
Vsnake
p1720
sI1721
Vsnatch
p1721
sI1722
Vsneer
p1722
sI1723
Vsnort
p1723
sI1724
Vsoar
p1724
sI1725
Vsoil
p1725
sI1726
Vsol
p1726
sI1727
Vsolve
p1727
sI1728
Vsoned
p1728
sI1729
Vsorb
p1729
sI1730
Vsore
p1730
sI1731
Vsoule
p1731
sI1732
Vsounds
p1732
sI1733
Vsource
p1733
sI1734
Vsouth
p1734
sI1735
Vspeak
p1735
sI1736
Vspears
p1736
sI1737
Vspeech
p1737
sI1738
Vspher
p1738
sI1739
Vspheres
p1739
sI1740
Vspi
p1740
sI1741
Vspied
p1741
sI1742
Vspikes
p1742
sI1743
Vspill
p1743
sI1744
Vspis
p1744
sI1745
Vsplit
p1745
sI1746
Vspong
p1746
sI1747
Vspout
p1747
sI1748
Vsprang
p1748
sI1749
Vspring
p1749
sI1750
Vsprung
p1750
sI1751
Vspun
p1751
sI1752
Vsta
p1752
sI1753
Vstair
p1753
sI1754
Vstake
p1754
sI1755
Vstalks
p1755
sI1756
Vstamped
p1756
sI1757
Vstan
p1757
sI1758
Vstands
p1758
sI1759
Vstarved
p1759
sI1760
Vstay
p1760
sI1761
Vsteals
p1761
sI1762
Vstee
p1762
sI1763
Vsteed
p1763
sI1764
Vsteep
p1764
sI1765
Vsticke
p1765
sI1766
Vstirred
p1766
sI1767
Vsto
p1767
sI1768
Vstone
p1768
sI1769
Vstones
p1769
sI1770
Vstorm
p1770
sI1771
Vstorms
p1771
sI1772
Vstraight
p1772
sI1773
Vstreamed
p1773
sI1774
Vstretch
p1774
sI1775
Vstrick
p1775
sI1776
Vstrid
p1776
sI1777
Vstrife
p1777
sI1778
Vstrike
p1778
sI1779
Vstrings
p1779
sI1780
Vstrong
p1780
sI1781
Vstrous
p1781
sI1782
Vstrove
p1782
sI1783
Vstruc
p1783
sI1784
Vstu
p1784
sI1785
Vstuff
p1785
sI1786
Vstut
p1786
sI1787
Vsub
p1787
sI1788
Vsuf
p1788
sI1789
Vsul
p1789
sI1790
Vsume
p1790
sI1791
Vsumed
p1791
sI1792
Vsup
p1792
sI1793
Vsured
p1793
sI1794
Vsures
p1794
sI1795
Vsurg
p1795
sI1796
Vsurge
p1796
sI1797
Vsurped
p1797
sI1798
Vswale
p1798
sI1799
Vsweeps
p1799
sI1800
Vswer
p1800
sI1801
Vswing
p1801
sI1802
Vswoon
p1802
sI1803
Vtack
p1803
sI1804
Vtail
p1804
sI1805
Vtained
p1805
sI1806
Vtains
p1806
sI1807
Vtalked
p1807
sI1808
Vtall
p1808
sI1809
Vtant
p1809
sI1810
Vtap
p1810
sI1811
Vtar
p1811
sI1812
Vtask
p1812
sI1813
Vtasks
p1813
sI1814
Vte
p1814
sI1815
Vtear
p1815
sI1816
Vtem
p1816
sI1817
Vtend
p1817
sI1818
Vterd
p1818
sI1819
Vthats
p1819
sI1820
Vthawed
p1820
sI1821
Vthence
p1821
sI1822
Vtherd
p1822
sI1823
Vthow
p1823
sI1824
Vthree
p1824
sI1825
Vthrew
p1825
sI1826
Vthrice
p1826
sI1827
Vthroat
p1827
sI1828
Vthrob
p1828
sI1829
Vthrow
p1829
sI1830
Vthrown
p1830
sI1831
Vthru
p1831
sI1832
Vthrush
p1832
sI1833
Vthwart
p1833
sI1834
Vti
p1834
sI1835
Vtial
p1835
sI1836
Vtic
p1836
sI1837
Vtience
p1837
sI1838
Vtile
p1838
sI1839
Vtique
p1839
sI1840
Vtire
p1840
sI1841
Vtly
p1841
sI1842
Vtoil
p1842
sI1843
Vtomb
p1843
sI1844
Vtoms
p1844
sI1845
Vtors
p1845
sI1846
Vtouch
p1846
sI1847
Vtowers
p1847
sI1848
Vtracks
p1848
sI1849
Vtrade
p1849
sI1850
Vtral
p1850
sI1851
Vtram
p1851
sI1852
Vtrees
p1852
sI1853
Vtrem
p1853
sI1854
Vtremes
p1854
sI1855
Vtress
p1855
sI1856
Vtrest
p1856
sI1857
Vtrib
p1857
sI1858
Vtrimmed
p1858
sI1859
Vtrips
p1859
sI1860
Vtro
p1860
sI1861
Vtrols
p1861
sI1862
Vtroth
p1862
sI1863
Vtrum
p1863
sI1864
Vtrust
p1864
sI1865
Vtter
p1865
sI1866
Vtu
p1866
sI1867
Vtue
p1867
sI1868
Vtul
p1868
sI1869
Vtur
p1869
sI1870
Vturbed
p1870
sI1871
Vturned
p1871
sI1872
Vtween
p1872
sI1873
Vtwelve
p1873
sI1874
Vtwice
p1874
sI1875
Vtwist
p1875
sI1876
Vtwould
p1876
sI1877
Vtyl
p1877
sI1878
Vuage
p1878
sI1879
Vui
p1879
sI1880
Vuid
p1880
sI1881
Vult
p1881
sI1882
Vumn
p1882
sI1883
Vumph
p1883
sI1884
Vurs
p1884
sI1885
Vut
p1885
sI1886
Vute
p1886
sI1887
Vv
sI1888
Vvale
p1887
sI1889
Vvan
p1888
sI1890
Vvast
p1889
sI1891
Vvault
p1890
sI1892
Vvaunt
p1891
sI1893
Vveiled
p1892
sI1894
Vveins
p1893
sI1895
Vvents
p1894
sI1896
Vvests
p1895
sI1897
Vvide
p1896
sI1898
Vvil
p1897
sI1899
Vvines
p1898
sI1900
Vvn
p1899
sI1901
Vvoic
p1900
sI1902
Vvor
p1901
sI1903
Vvows
p1902
sI1904
Vvy
p1903
sI1905
Vwaits
p1904
sI1906
Vwake
p1905
sI1907
Vwalls
p1906
sI1908
Vwand
p1907
sI1909
Vwarm
p1908
sI1910
Vwarmd
p1909
sI1911
Vwarn
p1910
sI1912
Vwarp
p1911
sI1913
Vwast
p1912
sI1914
Vwatched
p1913
sI1915
Vwaue
p1914
sI1916
Vweak
p1915
sI1917
Vwealth
p1916
sI1918
Vweaned
p1917
sI1919
Vweav
p1918
sI1920
Vweb
p1919
sI1921
Vweep
p1920
sI1922
Vweeps
p1921
sI1923
Vwept
p1922
sI1924
Vwer
p1923
sI1925
Vwet
p1924
sI1926
Vwharf
p1925
sI1927
Vwhats
p1926
sI1928
Vwheel
p1927
sI1929
Vwhence
p1928
sI1930
Vwhif
p1929
sI1931
Vwhip
p1930
sI1932
Vwhit
p1931
sI1933
Vwid
p1932
sI1934
Vwim
p1933
sI1935
Vwines
p1934
sI1936
Vwink
p1935
sI1937
Vwitch
p1936
sI1938
Vwoke
p1937
sI1939
Vwoods
p1938
sI1940
Vwor
p1939
sI1941
Vworks
p1940
sI1942
Vworlds
p1941
sI1943
Vworm
p1942
sI1944
Vworms
p1943
sI1945
Vwound
p1944
sI1946
Vwounds
p1945
sI1947
Vwove
p1946
sI1948
Vwreck
p1947
sI1949
Vwrit
p1948
sI1950
Vwyll
p1949
sI1951
Vwynde
p1950
sI1952
Vxome
p1951
sI1953
Vye
p1952
sI1954
Vyells
p1953
sI1955
Vyf
p1954
sI1956
Vyn
p1955
sI1957
Vyoull
p1956
sI1958
Vyr
p1957
sI1959
Vzeph
p1958
sI1960
Vzling
p1959
sI1961
Vzone
p1960
sI1962
Vzy
p1961
ss.