(dp1
S'id_to_char'
p2
(dp3
I0
V|
sI1
Ve
sI2
Vt
sI3
Va
sI4
Vo
sI5
Vh
sI6
Vn
sI7
Vs
sI8
Vi
sI9
Vr
sI10
Vl
sI11
Vd
sI12
Vw
sI13
Vu
sI14
Vm
sI15
Vg
sI16
Vf
sI17
Vc
sI18
Vy
sI19
Vb
sI20
Vp
sI21
Vv
sI22
Vk
sI23
V.
sI24
V'
sI25
V!
sI26
V?
sI27
Vj
sI28
Vz
sI29
Vx
sI30
Vq
ssS'id_to_tag'
p4
(dp5
I0
V+
sI1
V-
ssS'id_to_word'
p6
(dp7
I0
S'<UNK>'
p8
sI1
V|the|
p9
sI2
V|and|
p10
sI3
V|of|
p11
sI4
Ving|
p12
sI5
V|to|
p13
sI6
V|in|
p14
sI7
V|i|
p15
sI8
V|a|
p16
sI9
V|that|
p17
sI10
V|a
p18
sI11
V|with|
p19
sI12
V|my|
p20
sI13
V|me|
p21
sI14
V|as|
p22
sI15
Ver|
p23
sI16
Vly|
p24
sI17
V|for|
p25
sI18
V|be
p26
sI19
V|his|
p27
sI20
V|all|
p28
sI21
V|from|
p29
sI22
V|is|
p30
sI23
V|when|
p31
sI24
V|it|
p32
sI25
V|not|
p33
sI26
Vy|
p34
sI27
V|on|
p35
sI28
V|he|
p36
sI29
V|love|
p37
sI30
V|but|
p38
sI31
V|thou|
p39
sI32
V|was|
p40
sI33
V|or|
p41
sI34
V|have|
p42
sI35
V|no|
p43
sI36
Ved|
p44
sI37
V|one|
p45
sI38
V|thy|
p46
sI39
V|un
p47
sI40
V|at|
p48
sI41
V|her|
p49
sI42
V|how|
p50
sI43
V|by|
p51
sI44
V|you|
p52
sI45
V|now|
p53
sI46
V|so|
p54
sI47
V|there|
p55
sI48
V|what|
p56
sI49
Ven|
p57
sI50
Vter|
p58
sI51
V|night|
p59
sI52
V|de
p60
sI53
V|in
p61
sI54
V|their|
p62
sI55
V|be|
p63
sI56
V|e
p64
sI57
V|long|
p65
sI58
V|then|
p66
sI59
Vless|
p67
sI60
V|him|
p68
sI61
V|they|
p69
sI62
V|where|
p70
sI63
V|like|
p71
sI64
V|re
p72
sI65
V|which|
p73
sI66
Von|
p74
sI67
V|do|
p75
sI68
V|she|
p76
sI69
V|them|
p77
sI70
V|who|
p78
sI71
Vver|
p79
sI72
V|are|
p80
sI73
V|can|
p81
sI74
V|come|
p82
sI75
V|o
p83
sI76
V|this|
p84
sI77
V|yet|
p85
sI78
Vest|
p86
sI79
V|eyes|
p87
sI80
V|may|
p88
sI81
V|were|
p89
sI82
V|we|
p90
sI83
Vers|
p91
sI84
V|an
p92
sI85
V|if|
p93
sI86
V|let|
p94
sI87
V|o|
p95
sI88
V|through|
p96
sI89
V|up
p97
sI90
Ves|
p98
sI91
Vter
p99
sI92
Vtle|
p100
sI93
V|nor|
p101
sI94
V|out|
p102
sI95
V|see|
p103
sI96
V|shall|
p104
sI97
V|did|
p105
sI98
V|far|
p106
sI99
V|thee|
p107
sI100
V|for
p108
sI101
V|heav
p109
sI102
V|here|
p110
sI103
V|light|
p111
sI104
V|more|
p112
sI105
V|our|
p113
sI106
V|sweet|
p114
sI107
V|will|
p115
sI108
Vtion|
p116
sI109
Vty|
p117
sI110
V|con
p118
sI111
V|day|
p119
sI112
V|doth|
p120
sI113
V|down|
p121
sI114
V|its|
p122
sI115
V|life|
p123
sI116
V|lov
p124
sI117
V|too|
p125
sI118
Vble|
p126
sI119
Vder|
p127
sI120
V|af
p128
sI121
V|art|
p129
sI122
V|beau
p130
sI123
V|black|
p131
sI124
V|death|
p132
sI125
V|fall|
p133
sI126
V|heart|
p134
sI127
V|should|
p135
sI128
V|tell|
p136
sI129
V|time|
p137
sI130
V|win
p138
sI131
V|with
p139
sI132
V|would|
p140
sI133
Va
sI134
Vness|
p141
sI135
Vtain|
p142
sI136
Vto|
p143
sI137
V|air|
p144
sI138
V|am|
p145
sI139
V|earth|
p146
sI140
V|fi
p147
sI141
V|must|
p148
sI142
V|round|
p149
sI143
V|sea|
p150
sI144
V|such|
p151
sI145
V|these|
p152
sI146
V|up|
p153
sI147
V|us|
p154
sI148
V|your|
p155
sI149
Vbout|
p156
sI150
Vgain|
p157
sI151
Vi
sI152
Vlow|
p158
sI153
Vous|
p159
sI154
V|blue|
p160
sI155
V|breath|
p161
sI156
V|cold|
p162
sI157
V|each|
p163
sI158
V|en
p164
sI159
V|ev
p165
sI160
V|ex
p166
sI161
V|hath|
p167
sI162
V|i
p168
sI163
V|lit
p169
sI164
V|made|
p170
sI165
V|make|
p171
sI166
V|na
p172
sI167
V|on
p173
sI168
V|per
p174
sI169
V|slow|
p175
sI170
V|still|
p176
sI171
V|sun
p177
sI172
V|than|
p178
sI173
V|though|
p179
sI174
V|till|
p180
sI175
Vber|
p181
sI176
Vder
p182
sI177
Veth|
p183
sI178
Vre|
p184
sI179
Vself|
p185
sI180
Vther|
p186
sI181
Vway|
p187
sI182
V|bright|
p188
sI183
V|could|
p189
sI184
V|face|
p190
sI185
V|had|
p191
sI186
V|half|
p192
sI187
V|hand|
p193
sI188
V|la
p194
sI189
V|man
p195
sI190
V|pas
p196
sI191
V|place|
p197
sI192
V|sleep|
p198
sI193
V|way|
p199
sI194
V|went|
p200
sI195
Vish|
p201
sI196
Vny|
p202
sI197
Vture|
p203
sI198
Vven|
p204
sI199
V|ap
p205
sI200
V|can
p206
sI201
V|deep|
p207
sI202
V|feel|
p208
sI203
V|free|
p209
sI204
V|give|
p210
sI205
V|god|
p211
sI206
V|has|
p212
sI207
V|heard|
p213
sI208
V|lie|
p214
sI209
V|mine|
p215
sI210
V|snow|
p216
sI211
V|some
p217
sI212
V|sound|
p218
sI213
V|things|
p219
sI214
V|think|
p220
sI215
V|those|
p221
sI216
V|thought|
p222
sI217
V|well|
p223
sI218
V|whose|
p224
sI219
V|wild|
p225
sI220
V|world|
p226
sI221
Vber
p227
sI222
Vbove|
p228
sI223
Vcept|
p229
sI224
Vden|
p230
sI225
Ve
sI226
Ver
p231
sI227
Vered|
p232
sI228
Vfore|
p233
sI229
Vful|
p234
sI230
Vhold|
p235
sI231
Vlight|
p236
sI232
Vme
p237
sI233
Vneath|
p238
sI234
Vning|
p239
sI235
Vo|
p240
sI236
Vrow|
p241
sI237
Vry|
p242
sI238
Vson|
p243
sI239
Vy
sI240
V|arms|
p244
sI241
V|call|
p245
sI242
V|close|
p246
sI243
V|com
p247
sI244
V|dare|
p248
sI245
V|dark|
p249
sI246
V|dis
p250
sI247
V|ease|
p251
sI248
V|fear|
p252
sI249
V|flow
p253
sI250
V|flows|
p254
sI251
V|gar
p255
sI252
V|good|
p256
sI253
V|gray|
p257
sI254
V|high|
p258
sI255
V|huge|
p259
sI256
V|im
p260
sI257
V|just|
p261
sI258
V|leap|
p262
sI259
V|less|
p263
sI260
V|lines|
p264
sI261
V|look|
p265
sI262
V|love's|
p266
sI263
V|low|
p267
sI264
V|man|
p268
sI265
V|me
p269
sI266
V|mo
p270
sI267
V|much|
p271
sI268
V|my
p272
sI269
V|nev
p273
sI270
V|next|
p274
sI271
V|night.|
p275
sI272
V|off|
p276
sI273
V|old|
p277
sI274
V|once|
p278
sI275
V|pale|
p279
sI276
V|part|
p280
sI277
V|pleas
p281
sI278
V|riv
p282
sI279
V|ro
p283
sI280
V|saw|
p284
sI281
V|si
p285
sI282
V|some|
p286
sI283
V|stand|
p287
sI284
V|sun|
p288
sI285
V|sweet
p289
sI286
V|thus|
p290
sI287
V|ver
p291
sI288
Val|
p292
sI289
Vas|
p293
sI290
Vcause|
p294
sI291
Ven
p295
sI292
Ver's|
p296
sI293
Vin
p297
sI294
Vin|
p298
sI295
Vless
p299
sI296
Vlike|
p300
sI297
Vmem
p301
sI298
Vmer|
p302
sI299
Vmor
p303
sI300
Vnal|
p304
sI301
Vnot|
p305
sI302
Vout|
p306
sI303
Vpears|
p307
sI304
Vple|
p308
sI305
Vselves|
p309
sI306
Vside|
p310
sI307
Vsion|
p311
sI308
Vters|
p312
sI309
Vthing|
p313
sI310
Vties|
p314
sI311
Vture's|
p315
sI312
Vure|
p316
sI313
Vward|
p317
sI314
V|an|
p318
sI315
V|ar
p319
sI316
V|bat
p320
sI317
V|bed|
p321
sI318
V|been|
p322
sI319
V|birds|
p323
sI320
V|bird|
p324
sI321
V|blow|
p325
sI322
V|brave|
p326
sI323
V|bring|
p327
sI324
V|course|
p328
sI325
V|cur
p329
sI326
V|dim|
p330
sI327
V|done|
p331
sI328
V|dreams|
p332
sI329
V|drop|
p333
sI330
V|em
p334
sI331
V|eye|
p335
sI332
V|fair|
p336
sI333
V|fall
p337
sI334
V|fan
p338
sI335
V|few|
p339
sI336
V|full|
p340
sI337
V|gazed|
p341
sI338
V|gen
p342
sI339
V|glad|
p343
sI340
V|glit
p344
sI341
V|gold|
p345
sI342
V|go|
p346
sI343
V|grace|
p347
sI344
V|great|
p348
sI345
V|green|
p349
sI346
V|hap
p350
sI347
V|hearts|
p351
sI348
V|hear|
p352
sI349
V|hill|
p353
sI350
V|hon
p354
sI351
V|know|
p355
sI352
V|last|
p356
sI353
V|leave|
p357
sI354
V|left|
p358
sI355
V|li
p359
sI356
V|lies|
p360
sI357
V|live|
p361
sI358
V|loud|
p362
sI359
V|low
p363
sI360
V|makes|
p364
sI361
V|man's|
p365
sI362
V|might|
p366
sI363
V|mor
p367
sI364
V|move|
p368
sI365
V|new|
p369
sI366
V|none|
p370
sI367
V|or
p371
sI368
V|pos
p372
sI369
V|ra
p373
sI370
V|said|
p374
sI371
V|say|
p375
sI372
V|se
p376
sI373
V|seemed|
p377
sI374
V|short|
p378
sI375
V|side|
p379
sI376
V|skies|
p380
sI377
V|soft|
p381
sI378
V|spread|
p382
sI379
V|strange|
p383
sI380
V|sum
p384
sI381
V|sus
p385
sI382
V|swell|
p386
sI383
V|swift|
p387
sI384
V|tak
p388
sI385
V|take|
p389
sI386
V|thought.|
p390
sI387
V|thun
p391
sI388
V|trav
p392
sI389
V|true|
p393
sI390
V|two|
p394
sI391
V|vi
p395
sI392
V|view|
p396
sI393
V|voice|
p397
sI394
V|wa
p398
sI395
V|wan
p399
sI396
V|west|
p400
sI397
V|where
p401
sI398
V|whom|
p402
sI399
V|why|
p403
sI400
V|woe|
p404
sI401
V|wood|
p405
sI402
Vant|
p406
sI403
Va|
p407
sI404
Vbered|
p408
sI405
Vbers|
p409
sI406
Vbide|
p410
sI407
Vbor|
p411
sI408
Vbours|
p412
sI409
Vbra
p413
sI410
Vcient|
p414
sI411
Vcret|
p415
sI412
Vden
p416
sI413
Vdered|
p417
sI414
Vdi
p418
sI415
Vdle|
p419
sI416
Vel|
p420
sI417
Vests|
p421
sI418
Vfac
p422
sI419
Vful
p423
sI420
Vges|
p424
sI421
Vies|
p425
sI422
Ving!|
p426
sI423
Vion|
p427
sI424
Vish
p428
sI425
Vished|
p429
sI426
Vle|
p430
sI427
Vman|
p431
sI428
Vmazed|
p432
sI429
Vmer's|
p433
sI430
Vmost|
p434
sI431
Vque
p435
sI432
Vred|
p436
sI433
Vri
p437
sI434
Vround|
p438
sI435
Vsage|
p439
sI436
Vsic|
p440
sI437
Vstant|
p441
sI438
Vtal|
p442
sI439
Vted|
p443
sI440
Vthinks|
p444
sI441
Vtil|
p445
sI442
Vting|
p446
sI443
Vtue|
p447
sI444
Vu
sI445
Vven's|
p448
sI446
Vver
p449
sI447
Vvive|
p450
sI448
Vyond|
p451
sI449
V|ac
p452
sI450
V|ah!|
p453
sI451
V|al
p454
sI452
V|ask|
p455
sI453
V|back.|
p456
sI454
V|back|
p457
sI455
V|bare|
p458
sI456
V|bells|
p459
sI457
V|borne|
p460
sI458
V|both|
p461
sI459
V|brain|
p462
sI460
V|break|
p463
sI461
V|breast|
p464
sI462
V|burn
p465
sI463
V|came|
p466
sI464
V|cast|
p467
sI465
V|cheeks|
p468
sI466
V|clothes.|
p469
sI467
V|cloths|
p470
sI468
V|comes|
p471
sI469
V|des
p472
sI470
V|dew|
p473
sI471
V|di
p474
sI472
V|die|
p475
sI473
V|div
p476
sI474
V|does|
p477
sI475
V|dog|
p478
sI476
V|dome|
p479
sI477
V|dread|
p480
sI478
V|dream|
p481
sI479
V|else|
p482
sI480
V|ere|
p483
sI481
V|fad
p484
sI482
V|fast|
p485
sI483
V|fed|
p486
sI484
V|fee
p487
sI485
V|fell|
p488
sI486
V|first|
p489
sI487
V|five|
p490
sI488
V|flies|
p491
sI489
V|foot|
p492
sI490
V|forth|
p493
sI491
V|foun
p494
sI492
V|found|
p495
sI493
V|four|
p496
sI494
V|frag
p497
sI495
V|fresh|
p498
sI496
V|fur
p499
sI497
V|get|
p500
sI498
V|ghost|
p501
sI499
V|giv
p502
sI500
V|gives|
p503
sI501
V|goes|
p504
sI502
V|grass|
p505
sI503
V|grow|
p506
sI504
V|hands|
p507
sI505
V|har
p508
sI506
V|hast|
p509
sI507
V|head|
p510
sI508
V|held|
p511
sI509
V|ho
p512
sI510
V|ju
p513
sI511
V|king|
p514
sI512
V|kneel
p515
sI513
V|lain|
p516
sI514
V|land|
p517
sI515
V|lo
p518
sI516
V|long.|
p519
sI517
V|lose|
p520
sI518
V|lost|
p521
sI519
V|ma
p522
sI520
V|match|
p523
sI521
V|maz
p524
sI522
V|me!|
p525
sI523
V|men|
p526
sI524
V|moone|
p527
sI525
V|most|
p528
sI526
V|moun
p529
sI527
V|mu
p530
sI528
V|name|
p531
sI529
V|nar
p532
sI530
V|neigh
p533
sI531
V|noth
p534
sI532
V|oh|
p535
sI533
V|oth
p536
sI534
V|pa
p537
sI535
V|pass|
p538
sI536
V|pause|
p539
sI537
V|phoeb
p540
sI538
V|pulse|
p541
sI539
V|rap
p542
sI540
V|rea
p543
sI541
V|rest|
p544
sI542
V|rich|
p545
sI543
V|rid
p546
sI544
V|rise|
p547
sI545
V|rose|
p548
sI546
V|sad|
p549
sI547
V|sea
p550
sI548
V|shad
p551
sI549
V|shake|
p552
sI550
V|sharp|
p553
sI551
V|shore|
p554
sI552
V|silks|
p555
sI553
V|sing|
p556
sI554
V|sky|
p557
sI555
V|sleep
p558
sI556
V|slum
p559
sI557
V|small|
p560
sI558
V|so
p561
sI559
V|sol
p562
sI560
V|song|
p563
sI561
V|souls|
p564
sI562
V|spent|
p565
sI563
V|spir
p566
sI564
V|springs|
p567
sI565
V|star|
p568
sI566
V|state|
p569
sI567
V|stead
p570
sI568
V|steps|
p571
sI569
V|stood|
p572
sI570
V|stream|
p573
sI571
V|street|
p574
sI572
V|strong|
p575
sI573
V|sure|
p576
sI574
V|ten
p577
sI575
V|them
p578
sI576
V|thine|
p579
sI577
V|thin|
p580
sI578
V|thro'|
p581
sI579
V|took|
p582
sI580
V|tree|
p583
sI581
V|truth|
p584
sI582
V|vast|
p585
sI583
V|want|
p586
sI584
V|watch|
p587
sI585
V|weight|
p588
sI586
V|whis
p589
sI587
V|whit
p590
sI588
V|wilt|
p591
sI589
V|winds|
p592
sI590
V|wish
p593
sI591
V|wo
p594
sI592
V|won
p595
sI593
V|worlds|
p596
sI594
V|year|
p597
sI595
V|yea|
p598
sI596
V|yel
p599
sI597
V|young|
p600
sI598
Vage|
p601
sI599
Val
p602
sI600
Vate
p603
sI601
Vbi
p604
sI602
Vbla|
p605
sI603
Vble
p606
sI604
Vbled|
p607
sI605
Vcle|
p608
sI606
Vcoat|
p609
sI607
Vcount|
p610
sI608
Vcy|
p611
sI609
Vded|
p612
sI610
Vdel|
p613
sI611
Vders|
p614
sI612
Vdise|
p615
sI613
Vdles|
p616
sI614
Vel
p617
sI615
Vemn|
p618
sI616
Ver.|
p619
sI617
Ves
p620
sI618
Vet|
p621
sI619
Vey|
p622
sI620
Vfast|
p623
sI621
Vfer|
p624
sI622
Vfi
p625
sI623
Vform
p626
sI624
Vger|
p627
sI625
Vgins|
p628
sI626
Vgled|
p629
sI627
Vgo|
p630
sI628
Vgrabe.|
p631
sI629
Vgrate
p632
sI630
Vgrees|
p633
sI631
Vgy|
p634
sI632
Vhaps|
p635
sI633
Vhind|
p636
sI634
Vid|
p637
sI635
Vie|
p638
sI636
Vil|
p639
sI637
Ving
p640
sI638
Virs|
p641
sI639
Vit|
p642
sI640
Vjoy|
p643
sI641
Vlence|
p644
sI642
Vlent
p645
sI643
Vlets|
p646
sI644
Vli
p647
sI645
Vlia|
p648
sI646
Vlig|
p649
sI647
Vling|
p650
sI648
Vlone|
p651
sI649
Vlong|
p652
sI650
Vly.
p653
sI651
Vmed
p654
sI652
Vment|
p655
sI653
Vmil
p656
sI654
Vmous|
p657
sI655
Vmult|
p658
sI656
Vmur|
p659
sI657
Vmy|
p660
sI658
Vm|
p661
sI659
Vnesse?|
p662
sI660
Vni
p663
sI661
Vno
p664
sI662
Vnor
p665
sI663
Vnoth
p666
sI664
Vnow|
p667
sI665
Vnum
p668
sI666
Von
p669
sI667
Vone|
p670
sI668
Vpart|
p671
sI669
Vpen|
p672
sI670
Vper
p673
sI671
Vpered|
p674
sI672
Vper|
p675
sI673
Vpiece|
p676
sI674
Vpi|
p677
sI675
Vples|
p678
sI676
Vpy|
p679
sI677
Vrent|
p680
sI678
Vrest|
p681
sI679
Vrors|
p682
sI680
Vror|
p683
sI681
Vry's|
p684
sI682
Vscries.|
p685
sI683
Vseen.|
p686
sI684
Vsesse?|
p687
sI685
Vship|
p688
sI686
Vso|
p689
sI687
Vspi
p690
sI688
Vtain
p691
sI689
Vtain.|
p692
sI690
Vtalked|
p693
sI691
Vten
p694
sI692
Vtent
p695
sI693
Vtest|
p696
sI694
Vthur|
p697
sI695
Vti
p698
sI696
Vtient|
p699
sI697
Vtimes|
p700
sI698
Vtled|
p701
sI699
Vton|
p702
sI700
Vtron|
p703
sI701
Vtry|
p704
sI702
Vtune|
p705
sI703
Vtween|
p706
sI704
Vty.|
p707
sI705
Vumph|
p708
sI706
Vur
p709
sI707
Vures|
p710
sI708
Vus'|
p711
sI709
Vva
p712
sI710
Vvent|
p713
sI711
Vver.|
p714
sI712
Vvice|
p715
sI713
Vvis
p716
sI714
Vwards|
p717
sI715
Vware!|
p718
sI716
Vware|
p719
sI717
Vwock|
p720
sI718
Vworms|
p721
sI719
V|'mid|
p722
sI720
V|'twas|
p723
sI721
V|ad
p724
sI722
V|arch
p725
sI723
V|as
p726
sI724
V|bark|
p727
sI725
V|be?|
p728
sI726
V|bear|
p729
sI727
V|beat|
p730
sI728
V|bend|
p731
sI729
V|bent|
p732
sI730
V|best|
p733
sI731
V|bid|
p734
sI732
V|bil
p735
sI733
V|bit
p736
sI734
V|blow.|
p737
sI735
V|bold|
p738
sI736
V|bound|
p739
sI737
V|bow|
p740
sI738
V|breaks|
p741
sI739
V|breathe|
p742
sI740
V|bred|
p743
sI741
V|bril
p744
sI742
V|brings|
p745
sI743
V|browed|
p746
sI744
V|cal
p747
sI745
V|care
p748
sI746
V|case|
p749
sI747
V|cat
p750
sI748
V|caught|
p751
sI749
V|caves|
p752
sI750
V|ce
p753
sI751
V|cease
p754
sI752
V|cell|
p755
sI753
V|chance|
p756
sI754
V|chas
p757
sI755
V|chide|
p758
sI756
V|chief
p759
sI757
V|child|
p760
sI758
V|cho
p761
sI759
V|cit
p762
sI760
V|civ
p763
sI761
V|climb'st|
p764
sI762
V|clos
p765
sI763
V|cloud
p766
sI764
V|cloud|
p767
sI765
V|coun
p768
sI766
V|crack|
p769
sI767
V|cries|
p770
sI768
V|cut|
p771
sI769
V|dan
p772
sI770
V|danc
p773
sI771
V|dark
p774
sI772
V|days|
p775
sI773
V|dead
p776
sI774
V|dead|
p777
sI775
V|dear
p778
sI776
V|death's|
p779
sI777
V|deem'd|
p780
sI778
V|die.|
p781
sI779
V|dif
p782
sI780
V|ding|
p783
sI781
V|doors|
p784
sI782
V|door|
p785
sI783
V|drawn|
p786
sI784
V|dream
p787
sI785
V|dreamed|
p788
sI786
V|driv
p789
sI787
V|dry|
p790
sI788
V|dul
p791
sI789
V|dur
p792
sI790
V|dust|
p793
sI791
V|d|
p794
sI792
V|ear|
p795
sI793
V|end
p796
sI794
V|er
p797
sI795
V|eve|
p798
sI796
V|eyes?|
p799
sI797
V|fade|
p800
sI798
V|fae
p801
sI799
V|fail
p802
sI800
V|faint
p803
sI801
V|faith|
p804
sI802
V|fal
p805
sI803
V|falls|
p806
sI804
V|fate|
p807
sI805
V|fear
p808
sI806
V|feel'st|
p809
sI807
V|feele|
p810
sI808
V|feet|
p811
sI809
V|fields|
p812
sI810
V|fin
p813
sI811
V|fine|
p814
sI812
V|fire|
p815
sI813
V|flat|
p816
sI814
V|fleet|
p817
sI815
V|flesh|
p818
sI816
V|flood|
p819
sI817
V|foe|
p820
sI818
V|fol
p821
sI819
V|force|
p822
sI820
V|fount|
p823
sI821
V|frame|
p824
sI822
V|gain|
p825
sI823
V|gasp|
p826
sI824
V|gaz
p827
sI825
V|gi
p828
sI826
V|gim
p829
sI827
V|gloom|
p830
sI828
V|gone|
p831
sI829
V|grave|
p832
sI830
V|green.|
p833
sI831
V|grot|
p834
sI832
V|ground|
p835
sI833
V|gyre|
p836
sI834
V|hail|
p837
sI835
V|hair|
p838
sI836
V|hang|
p839
sI837
V|head
p840
sI838
V|heat|
p841
sI839
V|heaven's|
p842
sI840
V|height|
p843
sI841
V|her
p844
sI842
V|hid
p845
sI843
V|high
p846
sI844
V|hope|
p847
sI845
V|hour|
p848
sI846
V|hung|
p849
sI847
V|ice!|
p850
sI848
V|ice|
p851
sI849
V|ill|
p852
sI850
V|jab
p853
sI851
V|jot|
p854
sI852
V|joys|
p855
sI853
V|judge|
p856
sI854
V|keep|
p857
sI855
V|kings|
p858
sI856
V|knew|
p859
sI857
V|knots|
p860
sI858
V|known|
p861
sI859
V|ku
p862
sI860
V|lake|
p863
sI861
V|large|
p864
sI862
V|lat
p865
sI863
V|laugh
p866
sI864
V|learn|
p867
sI865
V|leaves|
p868
sI866
V|les
p869
sI867
V|lets|
p870
sI868
V|life
p871
sI869
V|light
p872
sI870
V|lights|
p873
sI871
V|lil
p874
sI872
V|lips|
p875
sI873
V|list|
p876
sI874
V|lives|
p877
sI875
V|lodg
p878
sI876
V|lone
p879
sI877
V|love
p880
sI878
V|love.|
p881
sI879
V|loved|
p882
sI880
V|maid|
p883
sI881
V|mas
p884
sI882
V|me.|
p885
sI883
V|meas
p886
sI884
V|meet|
p887
sI885
V|melt
p888
sI886
V|met|
p889
sI887
V|might
p890
sI888
V|miles|
p891
sI889
V|min
p892
sI890
V|mind|
p893
sI891
V|mir
p894
sI892
V|mome|
p895
sI893
V|moon|
p896
sI894
V|morn
p897
sI895
V|mourn
p898
sI896
V|moved|
p899
sI897
V|mur
p900
sI898
V|nay|
p901
sI899
V|near|
p902
sI900
V|needs|
p903
sI901
V|nei
p904
sI902
V|of
p905
sI903
V|out
p906
sI904
V|ov
p907
sI905
V|own|
p908
sI906
V|paine|
p909
sI907
V|pal
p910
sI908
V|par
p911
sI909
V|pass
p912
sI910
V|past|
p913
sI911
V|pearl|
p914
sI912
V|pen
p915
sI913
V|plain|
p916
sI914
V|played|
p917
sI915
V|play|
p918
sI916
V|pol
p919
sI917
V|pre
p920
sI918
V|pride|
p921
sI919
V|pro
p922
sI920
V|prompt|
p923
sI921
V|proud|
p924
sI922
V|pun
p925
sI923
V|put|
p926
sI924
V|quench|
p927
sI925
V|qui
p928
sI926
V|quick|
p929
sI927
V|ran|
p930
sI928
V|rare|
p931
sI929
V|raths|
p932
sI930
V|rayne|
p933
sI931
V|rest.|
p934
sI932
V|ring|
p935
sI933
V|rites|
p936
sI934
V|rocks|
p937
sI935
V|room|
p938
sI936
V|rough|
p939
sI937
V|roun
p940
sI938
V|round
p941
sI939
V|ru
p942
sI940
V|run|
p943
sI941
V|sails|
p944
sI942
V|same|
p945
sI943
V|sands|
p946
sI944
V|sank|
p947
sI945
V|save|
p948
sI946
V|scorne|
p949
sI947
V|scythe|
p950
sI948
V|sec
p951
sI949
V|sedge|
p952
sI950
V|see.|
p953
sI951
V|seek|
p954
sI952
V|seems|
p955
sI953
V|seen|
p956
sI954
V|seest|
p957
sI955
V|sense|
p958
sI956
V|shade|
p959
sI957
V|share|
p960
sI958
V|shine|
p961
sI959
V|shun|
p962
sI960
V|sick
p963
sI961
V|sides|
p964
sI962
V|sin
p965
sI963
V|since|
p966
sI964
V|sing.|
p967
sI965
V|sir|
p968
sI966
V|sit|
p969
sI967
V|sleepe|
p970
sI968
V|slith
p971
sI969
V|smell|
p972
sI970
V|smile|
p973
sI971
V|smooth|
p974
sI972
V|soar|
p975
sI973
V|song.|
p976
sI974
V|soon|
p977
sI975
V|sought|
p978
sI976
V|soul|
p979
sI977
V|sounds|
p980
sI978
V|speed|
p981
sI979
V|spon
p982
sI980
V|star
p983
sI981
V|stars|
p984
sI982
V|stone|
p985
sI983
V|straight|
p986
sI984
V|strain|
p987
sI985
V|streams|
p988
sI986
V|stretched|
p989
sI987
V|strike|
p990
sI988
V|sud
p991
sI989
V|suit
p992
sI990
V|sul
p993
sI991
V|sur
p994
sI992
V|swamp|
p995
sI993
V|sym
p996
sI994
V|ta
p997
sI995
V|takes|
p998
sI996
V|tall|
p999
sI997
V|tears|
p1000
sI998
V|tem
p1001
sI999
V|ter
p1002
sI1000
V|thick|
p1003
sI1001
V|thing|
p1004
sI1002
V|thirst|
p1005
sI1003
V|thoughts|
p1006
sI1004
V|three|
p1007
sI1005
V|throng|
p1008
sI1006
V|told|
p1009
sI1007
V|toves|
p1010
sI1008
V|tow
p1011
sI1009
V|tread|
p1012
sI1010
V|trem
p1013
sI1011
V|tri
p1014
sI1012
V|trou
p1015
sI1013
V|tu
p1016
sI1014
V|turn
p1017
sI1015
V|turn|
p1018
sI1016
V|two!|
p1019
sI1017
V|u
p1020
sI1018
V|use
p1021
sI1019
V|vale|
p1022
sI1020
V|veil|
p1023
sI1021
V|verse|
p1024
sI1022
V|vir
p1025
sI1023
V|wabe|
p1026
sI1024
V|wag
p1027
sI1025
V|wak
p1028
sI1026
V|wanne|
p1029
sI1027
V|waste|
p1030
sI1028
V|watch
p1031
sI1029
V|waves|
p1032
sI1030
V|wave|
p1033
sI1031
V|wear
p1034
sI1032
V|wears|
p1035
sI1033
V|weave|
p1036
sI1034
V|what
p1037
sI1035
V|when
p1038
sI1036
V|white|
p1039
sI1037
V|wide|
p1040
sI1038
V|wind|
p1041
sI1039
V|wings|
p1042
sI1040
V|wing|
p1043
sI1041
V|wit?|
p1044
sI1042
V|woods|
p1045
sI1043
V|words|
p1046
sI1044
V|word|
p1047
sI1045
V|work|
p1048
sI1046
V|wouldst|
p1049
sI1047
V|youth|
p1050
sI1048
Vac
p1051
sI1049
Vace|
p1052
sI1050
Vact|
p1053
sI1051
Vad|
p1054
sI1052
Vam
p1055
sI1053
Van
p1056
sI1054
Vanc
p1057
sI1055
Vance|
p1058
sI1056
Vand
p1059
sI1057
Van|
p1060
sI1058
Vard|
p1061
sI1059
Vbal
p1062
sI1060
Vbark|
p1063
sI1061
Vbat|
p1064
sI1062
Vbe
p1065
sI1063
Vbed|
p1066
sI1064
Vbend
p1067
sI1065
Vbics|
p1068
sI1066
Vbings|
p1069
sI1067
Vbird|
p1070
sI1068
Vbl
p1071
sI1069
Vble.|
p1072
sI1070
Vbled.|
p1073
sI1071
Vbles|
p1074
sI1072
Vbo
p1075
sI1073
Vbolt|
p1076
sI1074
Vbound
p1077
sI1075
Vbours'|
p1078
sI1076
Vboys|
p1079
sI1077
Vbrance|
p1080
sI1078
Vbright|
p1081
sI1079
Vbroi
p1082
sI1080
Vbuffed|
p1083
sI1081
Vbys
p1084
sI1082
Vca
p1085
sI1083
Vcal|
p1086
sI1084
Vcay.|
p1087
sI1085
Vcay?|
p1088
sI1086
Vcay|
p1089
sI1087
Vcean|
p1090
sI1088
Vceiv'st|
p1091
sI1089
Vceived|
p1092
sI1090
Vcel|
p1093
sI1091
Vcem
p1094
sI1092
Vcence|
p1095
sI1093
Vces
p1096
sI1094
Vces|
p1097
sI1095
Vchance|
p1098
sI1096
Vchange
p1099
sI1097
Vchant
p1100
sI1098
Vchieve|
p1101
sI1099
Vchis
p1102
sI1100
Vci
p1103
sI1101
Vcies|
p1104
sI1102
Vcim
p1105
sI1103
Vclin
p1106
sI1104
Vcom
p1107
sI1105
Vcome|
p1108
sI1106
Vcon
p1109
sI1107
Vcon|
p1110
sI1108
Vcov
p1111
sI1109
Vcover
p1112
sI1110
Vcre.|
p1113
sI1111
Vcred|
p1114
sI1112
Vcreep
p1115
sI1113
Vcross|
p1116
sI1114
Vcult.|
p1117
sI1115
Vcur|
p1118
sI1116
Vcut
p1119
sI1117
Vdant|
p1120
sI1118
Vdarn|
p1121
sI1119
Vday.|
p1122
sI1120
Vde
p1123
sI1121
Vdee|
p1124
sI1122
Vdels|
p1125
sI1123
Vdens|
p1126
sI1124
Vdents|
p1127
sI1125
Vdeur|
p1128
sI1126
Vdil.|
p1129
sI1127
Vdis
p1130
sI1128
Vdle.|
p1131
sI1129
Vdled|
p1132
sI1130
Vdo
p1133
sI1131
Vdom|
p1134
sI1132
Vdour|
p1135
sI1133
Vdow
p1136
sI1134
Vdraw
p1137
sI1135
Vdring|
p1138
sI1136
Vdrous|
p1139
sI1137
Vdry|
p1140
sI1138
Vdu|
p1141
sI1139
Ve'er|
p1142
sI1140
Veant|
p1143
sI1141
Velling|
p1144
sI1142
Vels|
p1145
sI1143
Ven!|
p1146
sI1144
Ven'd|
p1147
sI1145
Ven's|
p1148
sI1146
Ven.|
p1149
sI1147
Vend
p1150
sI1148
Vens'|
p1151
sI1149
Vent|
p1152
sI1150
Ver!|
p1153
sI1151
Verns|
p1154
sI1152
Vers'|
p1155
sI1153
Vert....|
p1156
sI1154
Verts|
p1157
sI1155
Ves.|
p1158
sI1156
Vest
p1159
sI1157
Vest.|
p1160
sI1158
Vev
p1161
sI1159
Vevs
p1162
sI1160
Vews|
p1163
sI1161
Vface|
p1164
sI1162
Vfalls|
p1165
sI1163
Vfar|
p1166
sI1164
Vfeat|
p1167
sI1165
Vfence|
p1168
sI1166
Vfend|
p1169
sI1167
Vfir
p1170
sI1168
Vfish|
p1171
sI1169
Vflect
p1172
sI1170
Vfleur.|
p1173
sI1171
Vfling|
p1174
sI1172
Vfo
p1175
sI1173
Vfold
p1176
sI1174
Vfresh|
p1177
sI1175
Vfused|
p1178
sI1176
Vfuse|
p1179
sI1177
Vfy|
p1180
sI1178
Vgain!|
p1181
sI1179
Vgainst|
p1182
sI1180
Vgan|
p1183
sI1181
Vgard|
p1184
sI1182
Vgayne|
p1185
sI1183
Vgels|
p1186
sI1184
Vgeous|
p1187
sI1185
Vger
p1188
sI1186
Vgey|
p1189
sI1187
Vgin
p1190
sI1188
Vgin|
p1191
sI1189
Vgles|
p1192
sI1190
Vglor
p1193
sI1191
Vglove|
p1194
sI1192
Vgo
p1195
sI1193
Vgone?|
p1196
sI1194
Vgot|
p1197
sI1195
Vgoves|
p1198
sI1196
Vgrace|
p1199
sI1197
Vgrant|
p1200
sI1198
Vguisht|
p1201
sI1199
Vguish|
p1202
sI1200
Vgulft|
p1203
sI1201
Vhave|
p1204
sI1202
Vheart.
p1205
sI1203
Vher
p1206
sI1204
Vherds|
p1207
sI1205
Vhid
p1208
sI1206
Vhoods.|
p1209
sI1207
Vic|
p1210
sI1208
Vid
p1211
sI1209
Vide|
p1212
sI1210
Vier!|
p1213
sI1211
Vig
p1214
sI1212
Vil
p1215
sI1213
Vile|
p1216
sI1214
Vined|
p1217
sI1215
Vion.|
p1218
sI1216
Vis|
p1219
sI1217
Vit
p1220
sI1218
Vit's|
p1221
sI1219
Vits|
p1222
sI1220
Vjax|
p1223
sI1221
Vject|
p1224
sI1222
Vjourn|
p1225
sI1223
Vjous|
p1226
sI1224
Vjub|
p1227
sI1225
Vjus
p1228
sI1226
Vken|
p1229
sI1227
Vkin
p1230
sI1228
Vkind|
p1231
sI1229
Vla
p1232
sI1230
Vlab
p1233
sI1231
Vland|
p1234
sI1232
Vlarm|
p1235
sI1233
Vlate|
p1236
sI1234
Vlay!|
p1237
sI1235
Vla|
p1238
sI1236
Vled|
p1239
sI1237
Vleep|
p1240
sI1238
Vlen
p1241
sI1239
Vlent|
p1242
sI1240
Vlen|
p1243
sI1241
Vler
p1244
sI1242
Vler's|
p1245
sI1243
Vler|
p1246
sI1244
Vlight
p1247
sI1245
Vlight's|
p1248
sI1246
Vlights|
p1249
sI1247
Vlion|
p1250
sI1248
Vlish|
p1251
sI1249
Vlone.|
p1252
sI1250
Vlooh!|
p1253
sI1251
Vloon|
p1254
sI1252
Vlop|
p1255
sI1253
Vlor|
p1256
sI1254
Vlos
p1257
sI1255
Vlour|
p1258
sI1256
Vlove
p1259
sI1257
Vlow
p1260
sI1258
Vlow!|
p1261
sI1259
Vlow'd|
p1262
sI1260
Vlow's|
p1263
sI1261
Vlows|
p1264
sI1262
Vlumph
p1265
sI1263
Vly?|
p1266
sI1264
Vma
p1267
sI1265
Vmains.|
p1268
sI1266
Vmains|
p1269
sI1267
Vmain|
p1270
sI1268
Vmal|
p1271
sI1269
Vman
p1272
sI1270
Vmanned|
p1273
sI1271
Vmant
p1274
sI1272
Vmas|
p1275
sI1273
Vmazed.|
p1276
sI1274
Vmend
p1277
sI1275
Vment
p1278
sI1276
Vment?|
p1279
sI1277
Vments|
p1280
sI1278
Vmer?|
p1281
sI1279
Vmet|
p1282
sI1280
Vmi
p1283
sI1281
Vmid|
p1284
sI1282
Vmine
p1285
sI1283
Vmit
p1286
sI1284
Vmite
p1287
sI1285
Vmits|
p1288
sI1286
Vmit|
p1289
sI1287
Vmo
p1290
sI1288
Vmoil|
p1291
sI1289
Vmong|
p1292
sI1290
Vmon|
p1293
sI1291
Vmor|
p1294
sI1292
Vmoves?|
p1295
sI1293
Vna
p1296
sI1294
Vnace|
p1297
sI1295
Vnall|
p1298
sI1296
Vna|
p1299
sI1297
Vness'|
p1300
sI1298
Vnet's|
p1301
sI1299
Vney|
p1302
sI1300
Vnied?|
p1303
sI1301
Vning's|
p1304
sI1302
Vning.|
p1305
sI1303
Vnit
p1306
sI1304
Vnoes|
p1307
sI1305
Vnough|
p1308
sI1306
Vo
sI1307
Vof|
p1309
sI1308
Vom|
p1310
sI1309
Vond|
p1311
sI1310
Vors|
p1312
sI1311
Voth
p1313
sI1312
Vour|
p1314
sI1313
Vous
p1315
sI1314
Vow
p1316
sI1315
Vow|
p1317
sI1316
Vpace|
p1318
sI1317
Vpair?|
p1319
sI1318
Vpal|
p1320
sI1319
Vpare|
p1321
sI1320
Vpart.|
p1322
sI1321
Vpear|
p1323
sI1322
Vpeck
p1324
sI1323
Vpen
p1325
sI1324
Vpend
p1326
sI1325
Vpests
p1327
sI1326
Vpest|
p1328
sI1327
Vpete|
p1329
sI1328
Vpet|
p1330
sI1329
Vph'rous|
p1331
sI1330
Vphes
p1332
sI1331
Vphin|
p1333
sI1332
Vphire|
p1334
sI1333
Vpho
p1335
sI1334
Vpi
p1336
sI1335
Vpie|
p1337
sI1336
Vplace|
p1338
sI1337
Vpled|
p1339
sI1338
Vplex
p1340
sI1339
Vplies|
p1341
sI1340
Vpling|
p1342
sI1341
Vpoint
p1343
sI1342
Vpon|
p1344
sI1343
Vpose|
p1345
sI1344
Vpris
p1346
sI1345
Vquaint
p1347
sI1346
Vqual
p1348
sI1347
Vra.|
p1349
sI1348
Vracts|
p1350
sI1349
Vrant|
p1351
sI1350
Vraph
p1352
sI1351
Vre
p1353
sI1352
Vre?|
p1354
sI1353
Vres
p1355
sI1354
Vres.|
p1356
sI1355
Vres|
p1357
sI1356
Vret|
p1358
sI1357
Vric|
p1359
sI1358
Vrid|
p1360
sI1359
Vries|
p1361
sI1360
Vris
p1362
sI1361
Vrise|
p1363
sI1362
Vro
p1364
sI1363
Vron
p1365
sI1364
Vron|
p1366
sI1365
Vrous|
p1367
sI1366
Vrowed|
p1368
sI1367
Vrowes|
p1369
sI1368
Vrows|
p1370
sI1369
Vroy|
p1371
sI1370
Vry
p1372
sI1371
Vsa
p1373
sI1372
Vsak
p1374
sI1373
Vsal|
p1375
sI1374
Vscends|
p1376
sI1375
Vsel|
p1377
sI1376
Vsem
p1378
sI1377
Vses
p1379
sI1378
Vsess|
p1380
sI1379
Vset|
p1381
sI1380
Vshes|
p1382
sI1381
Vsi
p1383
sI1382
Vsid
p1384
sI1383
Vsin
p1385
sI1384
Vsions|
p1386
sI1385
Vsir
p1387
sI1386
Vsive|
p1388
sI1387
Vso
p1389
sI1388
Vsolved|
p1390
sI1389
Vsolve|
p1391
sI1390
Vsome|
p1392
sI1391
Vsoned|
p1393
sI1392
Vsons.|
p1394
sI1393
Vsought|
p1395
sI1394
Vspair!|
p1396
sI1395
Vspis
p1397
sI1396
Vsta
p1398
sI1397
Vstan
p1399
sI1398
Vstrous|
p1400
sI1399
Vstroy.|
p1401
sI1400
Vsub
p1402
sI1401
Vsumed|
p1403
sI1402
Vsume|
p1404
sI1403
Vsured|
p1405
sI1404
Vsures|
p1406
sI1405
Vswer|
p1407
sI1406
Vsy!|
p1408
sI1407
Vsy|
p1409
sI1408
Vtained|
p1410
sI1409
Vtains|
p1411
sI1410
Vtan
p1412
sI1411
Vtar|
p1413
sI1412
Vtend|
p1414
sI1413
Vten|
p1415
sI1414
Vter'd|
p1416
sI1415
Vte|
p1417
sI1416
Vthe
p1418
sI1417
Vther'd|
p1419
sI1418
Vthrall|
p1420
sI1419
Vthrong.
p1421
sI1420
Vthrow|
p1422
sI1421
Vthwart|
p1423
sI1422
Vtial|
p1424
sI1423
Vtice|
p1425
sI1424
Vtide!|
p1426
sI1425
Vtide.|
p1427
sI1426
Vtience|
p1428
sI1427
Vtile|
p1429
sI1428
Vtime|
p1430
sI1429
Vtions|
p1431
sI1430
Vtique|
p1432
sI1431
Vtire|
p1433
sI1432
Vtle?|
p1434
sI1433
Vtly|
p1435
sI1434
Vtold|
p1436
sI1435
Vtoms|
p1437
sI1436
Vtor|
p1438
sI1437
Vtral|
p1439
sI1438
Vtrest|
p1440
sI1439
Vtrimmed|
p1441
sI1440
Vtrols|
p1442
sI1441
Vtry?|
p1443
sI1442
Vtter|
p1444
sI1443
Vtum|
p1445
sI1444
Vtun
p1446
sI1445
Vturbed|
p1447
sI1446
Vtured|
p1448
sI1447
Vturn
p1449
sI1448
Vty?|
p1450
sI1449
Vuage|
p1451
sI1450
Vui
p1452
sI1451
Vumn|
p1453
sI1452
Vup
p1454
sI1453
Vure
p1455
sI1454
Vurn|
p1456
sI1455
Vurs.|
p1457
sI1456
Vur|
p1458
sI1457
Vus|
p1459
sI1458
Vval
p1460
sI1459
Vvens|
p1461
sI1460
Vvent's|
p1462
sI1461
Vver!|
p1463
sI1462
Vverse|
p1464
sI1463
Vvest's|
p1465
sI1464
Vvest|
p1466
sI1465
Vvi
p1467
sI1466
Vvide|
p1468
sI1467
Vvoked|
p1469
sI1468
Vvous|
p1470
sI1469
Vwail
p1471
sI1470
Vwake|
p1472
sI1471
Vways'|
p1473
sI1472
Vways|
p1474
sI1473
Vwhen
p1475
sI1474
Vwhere.|
p1476
sI1475
Vwhere|
p1477
sI1476
Vwhile|
p1478
sI1477
Vwill|
p1479
sI1478
Vwind
p1480
sI1479
Vwoke|
p1481
sI1480
Vworm
p1482
sI1481
Vxome|
p1483
sI1482
Vy.|
p1484
sI1483
Vyet
p1485
sI1484
Vyr|
p1486
sI1485
Vys
p1487
sI1486
Vzen|
p1488
sI1487
Vzling|
p1489
sI1488
Vzy|
p1490
sI1489
V|''twas|
p1491
sI1490
V|'tis|
p1492
sI1491
V|'twould|
p1493
sI1492
V|ab
p1494
sI1493
V|act
p1495
sI1494
V|act|
p1496
sI1495
V|age|
p1497
sI1496
V|ah
p1498
sI1497
V|ah|
p1499
sI1498
V|aim|
p1500
sI1499
V|all?|
p1501
sI1500
V|alph|
p1502
sI1501
V|and
p1503
sI1502
V|armes|
p1504
sI1503
V|ash
p1505
sI1504
V|aught|
p1506
sI1505
V|aut
p1507
sI1506
V|ax|
p1508
sI1507
V|back
p1509
sI1508
V|bal
p1510
sI1509
V|bald|
p1511
sI1510
V|banke|
p1512
sI1511
V|bar
p1513
sI1512
V|barks|
p1514
sI1513
V|base
p1515
sI1514
V|be.|
p1516
sI1515
V|beam
p1517
sI1516
V|beams|
p1518
sI1517
V|bears|
p1519
sI1518
V|beast|
p1520
sI1519
V|beat
p1521
sI1520
V|beds|
p1522
sI1521
V|bees|
p1523
sI1522
V|bell.|
p1524
sI1523
V|big|
p1525
sI1524
V|bird's|
p1526
sI1525
V|birth|
p1527
sI1526
V|bite|
p1528
sI1527
V|black
p1529
sI1528
V|blade|
p1530
sI1529
V|blame|
p1531
sI1530
V|blank|
p1532
sI1531
V|blast|
p1533
sI1532
V|bleak|
p1534
sI1533
V|blew|
p1535
sI1534
V|blind
p1536
sI1535
V|blinds.|
p1537
sI1536
V|blind|
p1538
sI1537
V|blithe|
p1539
sI1538
V|blood
p1540
sI1539
V|blood|
p1541
sI1540
V|bloom|
p1542
sI1541
V|blown|
p1543
sI1542
V|blows|
p1544
sI1543
V|bo
p1545
sI1544
V|bonds|
p1546
sI1545
V|bones|
p1547
sI1546
V|boon|
p1548
sI1547
V|boot
p1549
sI1548
V|bot
p1550
sI1549
V|boughs|
p1551
sI1550
V|bound
p1552
sI1551
V|boy!|
p1553
sI1552
V|brace
p1554
sI1553
V|brag|
p1555
sI1554
V|brain?|
p1556
sI1555
V|braz
p1557
sI1556
V|break
p1558
sI1557
V|breast
p1559
sI1558
V|breath
p1560
sI1559
V|breeze|
p1561
sI1560
V|brief|
p1562
sI1561
V|bright
p1563
sI1562
V|brim|
p1564
sI1563
V|brink|
p1565
sI1564
V|broods|
p1566
sI1565
V|brooks|
p1567
sI1566
V|brook|
p1568
sI1567
V|brought|
p1569
sI1568
V|brown|
p1570
sI1569
V|brows|
p1571
sI1570
V|brow|
p1572
sI1571
V|brute|
p1573
sI1572
V|bu
p1574
sI1573
V|buc|
p1575
sI1574
V|buds|
p1576
sI1575
V|build|
p1577
sI1576
V|built|
p1578
sI1577
V|bulk|
p1579
sI1578
V|bun
p1580
sI1579
V|bur
p1581
sI1580
V|burned|
p1582
sI1581
V|burns|
p1583
sI1582
V|burnt|
p1584
sI1583
V|burn|
p1585
sI1584
V|bursts|
p1586
sI1585
V|burst|
p1587
sI1586
V|bus
p1588
sI1587
V|by.|
p1589
sI1588
V|ca
p1590
sI1589
V|call
p1591
sI1590
V|came!|
p1592
sI1591
V|camp|
p1593
sI1592
V|capped|
p1594
sI1593
V|car
p1595
sI1594
V|carv
p1596
sI1595
V|cas
p1597
sI1596
V|catch
p1598
sI1597
V|catch!|
p1599
sI1598
V|cause
p1600
sI1599
V|cav
p1601
sI1600
V|caves.|
p1602
sI1601
V|cawed|
p1603
sI1602
V|cells|
p1604
sI1603
V|cer
p1605
sI1604
V|chaf
p1606
sI1605
V|chain?|
p1607
sI1606
V|cham
p1608
sI1607
V|chang
p1609
sI1608
V|chang'd|
p1610
sI1609
V|changed|
p1611
sI1610
V|change|
p1612
sI1611
V|charged|
p1613
sI1612
V|chasm|
p1614
sI1613
V|chaste|
p1615
sI1614
V|chat
p1616
sI1615
V|che
p1617
sI1616
V|cheeks.|
p1618
sI1617
V|chie
p1619
sI1618
V|child
p1620
sI1619
V|chiv
p1621
sI1620
V|chor
p1622
sI1621
V|christ
p1623
sI1622
V|chryst|
p1624
sI1623
V|church|
p1625
sI1624
V|cir
p1626
sI1625
V|clad|
p1627
sI1626
V|clasp?|
p1628
sI1627
V|claws|
p1629
sI1628
V|clean
p1630
sI1629
V|clean|
p1631
sI1630
V|clev
p1632
sI1631
V|clev|
p1633
sI1632
V|cliff|
p1634
sI1633
V|climb
p1635
sI1634
V|climbs|
p1636
sI1635
V|clime|
p1637
sI1636
V|cloud.|
p1638
sI1637
V|clouds!|
p1639
sI1638
V|clouds|
p1640
sI1639
V|clus
p1641
sI1640
V|co
p1642
sI1641
V|cocks.|
p1643
sI1642
V|cold.|
p1644
sI1643
V|cor
p1645
sI1644
V|cord|
p1646
sI1645
V|corn|
p1647
sI1646
V|count
p1648
sI1647
V|cov
p1649
sI1648
V|cove|
p1650
sI1649
V|craft|
p1651
sI1650
V|crag
p1652
sI1651
V|craue|
p1653
sI1652
V|crest|
p1654
sI1653
V|cried|
p1655
sI1654
V|crim
p1656
sI1655
V|crisp
p1657
sI1656
V|cross|
p1658
sI1657
V|crown|
p1659
sI1658
V|crushed.|
p1660
sI1659
V|cry|
p1661
sI1660
V|cul
p1662
sI1661
V|cun
p1663
sI1662
V|cup
p1664
sI1663
V|curse|
p1665
sI1664
V|cut
p1666
sI1665
V|daf
p1667
sI1666
V|dai
p1668
sI1667
V|dale|
p1669
sI1668
V|dam
p1670
sI1669
V|dap
p1671
sI1670
V|dar
p1672
sI1671
V|darts|
p1673
sI1672
V|date|
p1674
sI1673
V|dau
p1675
sI1674
V|dawn|
p1676
sI1675
V|day
p1677
sI1676
V|day!|
p1678
sI1677
V|day.|
p1679
sI1678
V|day?|
p1680
sI1679
V|deaf|
p1681
sI1680
V|dear|
p1682
sI1681
V|death
p1683
sI1682
V|death.|
p1684
sI1683
V|deigned|
p1685
sI1684
V|den?|
p1686
sI1685
V|dick|
p1687
sI1686
V|die!|
p1688
sI1687
V|died.|
p1689
sI1688
V|died|
p1690
sI1689
V|dies|
p1691
sI1690
V|dimmed|
p1692
sI1691
V|dive|
p1693
sI1692
V|diz
p1694
sI1693
V|doest|
p1695
sI1694
V|doff|
p1696
sI1695
V|dome!|
p1697
sI1696
V|dom|
p1698
sI1697
V|done.|
p1699
sI1698
V|dong.|
p1700
sI1699
V|dong|
p1701
sI1700
V|dotes|
p1702
sI1701
V|doubt|
p1703
sI1702
V|dove|
p1704
sI1703
V|down.|
p1705
sI1704
V|downe|
p1706
sI1705
V|drained|
p1707
sI1706
V|draw
p1708
sI1707
V|draw|
p1709
sI1708
V|dreams.|
p1710
sI1709
V|drenched|
p1711
sI1710
V|drew|
p1712
sI1711
V|driz
p1713
sI1712
V|droop|
p1714
sI1713
V|drops|
p1715
sI1714
V|drowned|
p1716
sI1715
V|drum|
p1717
sI1716
V|drunk
p1718
sI1717
V|du
p1719
sI1718
V|due?|
p1720
sI1719
V|due|
p1721
sI1720
V|dumb|
p1722
sI1721
V|dusk|
p1723
sI1722
V|dwelt|
p1724
sI1723
V|dwin
p1725
sI1724
V|e'er|
p1726
sI1725
V|each!|
p1727
sI1726
V|ear!|
p1728
sI1727
V|earth
p1729
sI1728
V|earth's|
p1730
sI1729
V|eas
p1731
sI1730
V|ease.|
p1732
sI1731
V|east
p1733
sI1732
V|ec
p1734
sI1733
V|ech
p1735
sI1734
V|ei
p1736
sI1735
V|eight.|
p1737
sI1736
V|elf
p1738
sI1737
V|elf|
p1739
sI1738
V|ends|
p1740
sI1739
V|end|
p1741
sI1740
V|er|
p1742
sI1741
V|ev'n|
p1743
sI1742
V|eve
p1744
sI1743
V|eve's|
p1745
sI1744
V|fa
p1746
sI1745
V|fab
p1747
sI1746
V|fac
p1748
sI1747
V|fail|
p1749
sI1748
V|faints|
p1750
sI1749
V|fair
p1751
sI1750
V|fair.|
p1752
sI1751
V|fall.|
p1753
sI1752
V|falls.|
p1754
sI1753
V|false|
p1755
sI1754
V|far
p1756
sI1755
V|farm|
p1757
sI1756
V|fash
p1758
sI1757
V|fath
p1759
sI1758
V|fay|
p1760
sI1759
V|fe
p1761
sI1760
V|fea
p1762
sI1761
V|feare|
p1763
sI1762
V|fears|
p1764
sI1763
V|feath
p1765
sI1764
V|feet?|
p1766
sI1765
V|fel
p1767
sI1766
V|felt|
p1768
sI1767
V|fer
p1769
sI1768
V|fic
p1770
sI1769
V|fier
p1771
sI1770
V|fight|
p1772
sI1771
V|find|
p1773
sI1772
V|fing
p1774
sI1773
V|fis
p1775
sI1774
V|flail|
p1776
sI1775
V|flame|
p1777
sI1776
V|flash|
p1778
sI1777
V|flee|
p1779
sI1778
V|flew|
p1780
sI1779
V|flight|
p1781
sI1780
V|flood?|
p1782
sI1781
V|flour
p1783
sI1782
V|flow'rs|
p1784
sI1783
V|foam|
p1785
sI1784
V|folds|
p1786
sI1785
V|fond
p1787
sI1786
V|fond|
p1788
sI1787
V|foo
p1789
sI1788
V|fools|
p1790
sI1789
V|foot
p1791
sI1790
V|foot!|
p1792
sI1791
V|forced|
p1793
sI1792
V|fore
p1794
sI1793
V|foul|
p1795
sI1794
V|found.|
p1796
sI1795
V|four.|
p1797
sI1796
V|fox
p1798
sI1797
V|frab
p1799
sI1798
V|fraile|
p1800
sI1799
V|freck
p1801
sI1800
V|free
p1802
sI1801
V|freez
p1803
sI1802
V|fresh
p1804
sI1803
V|fret|
p1805
sI1804
V|fright|
p1806
sI1805
V|fro
p1807
sI1806
V|frost|
p1808
sI1807
V|fro|
p1809
sI1808
V|ga
p1810
sI1809
V|gal
p1811
sI1810
V|gall|
p1812
sI1811
V|gap|
p1813
sI1812
V|gash|
p1814
sI1813
V|gate|
p1815
sI1814
V|gath
p1816
sI1815
V|ger
p1817
sI1816
V|ghast
p1818
sI1817
V|girls'|
p1819
sI1818
V|glade|
p1820
sI1819
V|glass|
p1821
sI1820
V|glid
p1822
sI1821
V|gloam|
p1823
sI1822
V|globe.|
p1824
sI1823
V|globe|
p1825
sI1824
V|glor
p1826
sI1825
V|glow
p1827
sI1826
V|go
p1828
sI1827
V|go.|
p1829
sI1828
V|god.|
p1830
sI1829
V|gold
p1831
sI1830
V|gone.|
p1832
sI1831
V|gor
p1833
sI1832
V|gown!|
p1834
sI1833
V|grac
p1835
sI1834
V|grain|
p1836
sI1835
V|gran
p1837
sI1836
V|graue?|
p1838
sI1837
V|grave.|
p1839
sI1838
V|graves|
p1840
sI1839
V|great
p1841
sI1840
V|greece|
p1842
sI1841
V|green
p1843
sI1842
V|grief|
p1844
sI1843
V|grieues|
p1845
sI1844
V|grieve|
p1846
sI1845
V|ground.|
p1847
sI1846
V|groves|
p1848
sI1847
V|grow
p1849
sI1848
V|grow'st|
p1850
sI1849
V|grown|
p1851
sI1850
V|growth|
p1852
sI1851
V|guns.|
p1853
sI1852
V|ha
p1854
sI1853
V|had'st|
p1855
sI1854
V|hag
p1856
sI1855
V|hair'd|
p1857
sI1856
V|ham
p1858
sI1857
V|hamp
p1859
sI1858
V|hand?|
p1860
sI1859
V|hard
p1861
sI1860
V|hard|
p1862
sI1861
V|hark!|
p1863
sI1862
V|harsh
p1864
sI1863
V|hast
p1865
sI1864
V|hate|
p1866
sI1865
V|haue|
p1867
sI1866
V|haun
p1868
sI1867
V|haunt
p1869
sI1868
V|hawk|
p1870
sI1869
V|hay|
p1871
sI1870
V|haz
p1872
sI1871
V|hea
p1873
sI1872
V|head.|
p1874
sI1873
V|health
p1875
sI1874
V|hear
p1876
sI1875
V|hear?|
p1877
sI1876
V|hears|
p1878
sI1877
V|heart.|
p1879
sI1878
V|heart?|
p1880
sI1879
V|hearth
p1881
sI1880
V|hearts.|
p1882
sI1881
V|heav'n
p1883
sI1882
V|heel|
p1884
sI1883
V|hel
p1885
sI1884
V|helpe|
p1886
sI1885
V|help|
p1887
sI1886
V|hem
p1888
sI1887
V|hence|
p1889
sI1888
V|herbs|
p1890
sI1889
V|here.|
p1891
sI1890
V|hide|
p1892
sI1891
V|hill's|
p1893
sI1892
V|hills|
p1894
sI1893
V|him
p1895
sI1894
V|him.|
p1896
sI1895
V|hint|
p1897
sI1896
V|hoarse|
p1898
sI1897
V|hol
p1899
sI1898
V|hold
p1900
sI1899
V|hold|
p1901
sI1900
V|home.|
p1902
sI1901
V|home|
p1903
sI1902
V|hood|
p1904
sI1903
V|hop
p1905
sI1904
V|hor
p1906
sI1905
V|horse|
p1907
sI1906
V|hot|
p1908
sI1907
V|house|
p1909
sI1908
V|howl
p1910
sI1909
V|hu
p1911
sI1910
V|hur
p1912
sI1911
V|hurl|
p1913
sI1912
V|hymns|
p1914
sI1913
V|i'|
p1915
sI1914
V|ig
p1916
sI1915
V|inch|
p1917
sI1916
V|ioy
p1918
sI1917
V|it
p1919
sI1918
V|jaws|
p1920
sI1919
V|jew
p1921
sI1920
V|jour
p1922
sI1921
V|joy.|
p1923
sI1922
V|joy|
p1924
sI1923
V|jub
p1925
sI1924
V|keen|
p1926
sI1925
V|kew|
p1927
sI1926
V|khan|
p1928
sI1927
V|kill|
p1929
sI1928
V|kin
p1930
sI1929
V|kind
p1931
sI1930
V|kiss
p1932
sI1931
V|kiss|
p1933
sI1932
V|kle!|
p1934
sI1933
V|knees|
p1935
sI1934
V|knell|
p1936
sI1935
V|knights|
p1937
sI1936
V|knock|
p1938
sI1937
V|knows|
p1939
sI1938
V|kra
p1940
sI1939
V|lack|
p1941
sI1940
V|laid|
p1942
sI1941
V|lair|
p1943
sI1942
V|lamb|
p1944
sI1943
V|lamps|
p1945
sI1944
V|lan
p1946
sI1945
V|lands|
p1947
sI1946
V|lang
p1948
sI1947
V|lark|
p1949
sI1948
V|lash|
p1950
sI1949
V|late|
p1951
sI1950
V|layes|
p1952
sI1951
V|leaf|
p1953
sI1952
V|league|
p1954
sI1953
V|lean|
p1955
sI1954
V|leapt|
p1956
sI1955
V|lease|
p1957
sI1956
V|least|
p1958
sI1957
V|legs|
p1959
sI1958
V|lend
p1960
sI1959
V|lest|
p1961
sI1960
V|let
p1962
sI1961
V|lev
p1963
sI1962
V|lids|
p1964
sI1963
V|life!|
p1965
sI1964
V|ligh
p1966
sI1965
V|light!|
p1967
sI1966
V|light.|
p1968
sI1967
V|limbs|
p1969
sI1968
V|line|
p1970
sI1969
V|lion|
p1971
sI1970
V|lips.|
p1972
sI1971
V|list
p1973
sI1972
V|lived|
p1974
sI1973
V|lodged|
p1975
sI1974
V|lodge|
p1976
sI1975
V|loft
p1977
sI1976
V|loi
p1978
sI1977
V|lone|
p1979
sI1978
V|long
p1980
sI1979
V|looked|
p1981
sI1980
V|lookes|
p1982
sI1981
V|looks|
p1983
sI1982
V|loom|
p1984
sI1983
V|loose|
p1985
sI1984
V|lord|
p1986
sI1985
V|loss|
p1987
sI1986
V|lov'd|
p1988
sI1987
V|loves?|
p1989
sI1988
V|loves|
p1990
sI1989
V|lull|
p1991
sI1990
V|lurks|
p1992
sI1991
V|ly|
p1993
sI1992
V|mad|
p1994
sI1993
V|mai
p1995
sI1994
V|maids|
p1996
sI1995
V|main.|
p1997
sI1996
V|main|
p1998
sI1997
V|maj
p1999
sI1998
V|make.|
p2000
sI1999
V|maps|
p2001
sI2000
V|march|
p2002
sI2001
V|mark|
p2003
sI2002
V|mask|
p2004
sI2003
V|mass
p2005
sI2004
V|mayst|
p2006
sI2005
V|mea
p2007
sI2006
V|mead|
p2008
sI2007
V|mean|
p2009
sI2008
V|meetes|
p2010
sI2009
V|mem
p2011
sI2010
V|men's|
p2012
sI2011
V|mend|
p2013
sI2012
V|mid|
p2014
sI2013
V|mightst|
p2015
sI2014
V|mil
p2016
sI2015
V|mill|
p2017
sI2016
V|mim
p2018
sI2017
V|minds|
p2019
sI2018
V|mire|
p2020
sI2019
V|missed|
p2021
sI2020
V|mis|
p2022
sI2021
V|mixed|
p2023
sI2022
V|moan.|
p2024
sI2023
V|mock
p2025
sI2024
V|mocked|
p2026
sI2025
V|mock|
p2027
sI2026
V|mod
p2028
sI2027
V|moist|
p2029
sI2028
V|mon
p2030
sI2029
V|moods|
p2031
sI2030
V|more
p2032
sI2031
V|morn|
p2033
sI2032
V|moth
p2034
sI2033
V|moul
p2035
sI2034
V|moulds|
p2036
sI2035
V|mould|
p2037
sI2036
V|mount|
p2038
sI2037
V|mov
p2039
sI2038
V|moves|
p2040
sI2039
V|nai
p2041
sI2040
V|near?|
p2042
sI2041
V|nec
p2043
sI2042
V|neck|
p2044
sI2043
V|need|
p2045
sI2044
V|nests|
p2046
sI2045
V|nest|
p2047
sI2046
V|neth
p2048
sI2047
V|new.|
p2049
sI2048
V|nice|
p2050
sI2049
V|nigh|
p2051
sI2050
V|no
p2052
sI2051
V|noise|
p2053
sI2052
V|noon
p2054
sI2053
V|noon|
p2055
sI2054
V|nor
p2056
sI2055
V|north|
p2057
sI2056
V|nour
p2058
sI2057
V|num
p2059
sI2058
V|nuns|
p2060
sI2059
V|nut
p2061
sI2060
V|nymphs|
p2062
sI2061
V|o'er
p2063
sI2062
V|o'er|
p2064
sI2063
V|ob
p2065
sI2064
V|oc
p2066
sI2065
V|oft|
p2067
sI2066
V|oh!|
p2068
sI2067
V|ol
p2069
sI2068
V|one.|
p2070
sI2069
V|ooz
p2071
sI2070
V|ou
p2072
sI2071
V|our
p2073
sI2072
V|ow'st|
p2074
sI2073
V|owl|
p2075
sI2074
V|oz
p2076
sI2075
V|pag
p2077
sI2076
V|pain|
p2078
sI2077
V|pair|
p2079
sI2078
V|pale
p2080
sI2079
V|pall|
p2081
sI2080
V|pane|
p2082
sI2081
V|pants|
p2083
sI2082
V|pass'd|
p2084
sI2083
V|pass.|
p2085
sI2084
V|passe|
p2086
sI2085
V|pat
p2087
sI2086
V|paused|
p2088
sI2087
V|pave
p2089
sI2088
V|pays|
p2090
sI2089
V|pay|
p2091
sI2090
V|peace
p2092
sI2091
V|ped
p2093
sI2092
V|pen|
p2094
sI2093
V|peo
p2095
sI2094
V|pha
p2096
sI2095
V|pier|
p2097
sI2096
V|pil
p2098
sI2097
V|piled|
p2099
sI2098
V|plac
p2100
sI2099
V|plain.|
p2101
sI2100
V|plant|
p2102
sI2101
V|plan|
p2103
sI2102
V|please.|
p2104
sI2103
V|pleased|
p2105
sI2104
V|plo
p2106
sI2105
V|plod|
p2107
sI2106
V|plot|
p2108
sI2107
V|plough|
p2109
sI2108
V|plume|
p2110
sI2109
V|plun
p2111
sI2110
V|point
p2112
sI2111
V|poor|
p2113
sI2112
V|por
p2114
sI2113
V|port|
p2115
sI2114
V|pour'd|
p2116
sI2115
V|praise|
p2117
sI2116
V|prayers|
p2118
sI2117
V|pray|
p2119
sI2118
V|press'd|
p2120
sI2119
V|priest
p2121
sI2120
V|prime|
p2122
sI2121
V|prin
p2123
sI2122
V|pris
p2124
sI2123
V|prop|
p2125
sI2124
V|proved|
p2126
sI2125
V|prow|
p2127
sI2126
V|pull|
p2128
sI2127
V|purl
p2129
sI2128
V|push
p2130
sI2129
V|quick
p2131
sI2130
V|raf
p2132
sI2131
V|rage|
p2133
sI2132
V|rai
p2134
sI2133
V|rain|
p2135
sI2134
V|rais'd|
p2136
sI2135
V|raise|
p2137
sI2136
V|rang|
p2138
sI2137
V|rath
p2139
sI2138
V|rav
p2140
sI2139
V|raves.|
p2141
sI2140
V|read
p2142
sI2141
V|reade|
p2143
sI2142
V|read|
p2144
sI2143
V|reck|
p2145
sI2144
V|red|
p2146
sI2145
V|reeds|
p2147
sI2146
V|rein|
p2148
sI2147
V|rel
p2149
sI2148
V|rest
p2150
sI2149
V|rhyme|
p2151
sI2150
V|ridge|
p2152
sI2151
V|right|
p2153
sI2152
V|rills|
p2154
sI2153
V|rill|
p2155
sI2154
V|ring
p2156
sI2155
V|rip
p2157
sI2156
V|roar
p2158
sI2157
V|roar.|
p2159
sI2158
V|roared|
p2160
sI2159
V|robe|
p2161
sI2160
V|robs|
p2162
sI2161
V|rock's|
p2163
sI2162
V|rocked|
p2164
sI2163
V|rock|
p2165
sI2164
V|rod?|
p2166
sI2165
V|rol
p2167
sI2166
V|roll
p2168
sI2167
V|rolled|
p2169
sI2168
V|rolls|
p2170
sI2169
V|rome|
p2171
sI2170
V|roofs|
p2172
sI2171
V|rooks|
p2173
sI2172
V|rook|
p2174
sI2173
V|roots|
p2175
sI2174
V|rose!|
p2176
sI2175
V|roy
p2177
sI2176
V|run
p2178
sI2177
V|rung|
p2179
sI2178
V|runs|
p2180
sI2179
V|ry|
p2181
sI2180
V|sa
p2182
sI2181
V|sad
p2183
sI2182
V|sake|
p2184
sI2183
V|salt|
p2185
sI2184
V|sand.|
p2186
sI2185
V|sand|
p2187
sI2186
V|sang.|
p2188
sI2187
V|sap
p2189
sI2188
V|sat
p2190
sI2189
V|sat|
p2191
sI2190
V|say
p2192
sI2191
V|says|
p2193
sI2192
V|scan
p2194
sI2193
V|scared|
p2195
sI2194
V|scope|
p2196
sI2195
V|scours|
p2197
sI2196
V|scratch|
p2198
sI2197
V|screen|
p2199
sI2198
V|sculp
p2200
sI2199
V|sea.|
p2201
sI2200
V|seals|
p2202
sI2201
V|seal|
p2203
sI2202
V|seas|
p2204
sI2203
V|seed|
p2205
sI2204
V|seek
p2206
sI2205
V|seem|
p2207
sI2206
V|sees|
p2208
sI2207
V|seeth
p2209
sI2208
V|selfe|
p2210
sI2209
V|self|
p2211
sI2210
V|sense.|
p2212
sI2211
V|serve|
p2213
sI2212
V|sev
p2214
sI2213
V|sha
p2215
sI2214
V|shades|
p2216
sI2215
V|shag
p2217
sI2216
V|shak
p2218
sI2217
V|shake!|
p2219
sI2218
V|shakes|
p2220
sI2219
V|shamed|
p2221
sI2220
V|shapes|
p2222
sI2221
V|shares|
p2223
sI2222
V|sharpe|
p2224
sI2223
V|shed.|
p2225
sI2224
V|sheer|
p2226
sI2225
V|shep
p2227
sI2226
V|shi
p2228
sI2227
V|shin
p2229
sI2228
V|shines|
p2230
sI2229
V|ship
p2231
sI2230
V|shod.|
p2232
sI2231
V|shore.|
p2233
sI2232
V|shou'd|
p2234
sI2233
V|should
p2235
sI2234
V|shout
p2236
sI2235
V|show
p2237
sI2236
V|shown|
p2238
sI2237
V|shrill|
p2239
sI2238
V|shroud
p2240
sI2239
V|shrouds|
p2241
sI2240
V|shrunk|
p2242
sI2241
V|shuns|
p2243
sI2242
V|shuts|
p2244
sI2243
V|shut|
p2245
sI2244
V|sick!|
p2246
sI2245
V|sid
p2247
sI2246
V|side
p2248
sI2247
V|side.|
p2249
sI2248
V|sigh
p2250
sI2249
V|sighed|
p2251
sI2250
V|sights|
p2252
sI2251
V|silk
p2253
sI2252
V|sil|
p2254
sI2253
V|sim
p2255
sI2254
V|sing
p2256
sI2255
V|singe|
p2257
sI2256
V|sings.|
p2258
sI2257
V|sings|
p2259
sI2258
V|sinks|
p2260
sI2259
V|skate's|
p2261
sI2260
V|skims|
p2262
sI2261
V|skin|
p2263
sI2262
V|slack
p2264
sI2263
V|sleep.|
p2265
sI2264
V|sleeps|
p2266
sI2265
V|slept|
p2267
sI2266
V|slew|
p2268
sI2267
V|slimed|
p2269
sI2268
V|slim|
p2270
sI2269
V|slip
p2271
sI2270
V|slow
p2272
sI2271
V|slush
p2273
sI2272
V|smalle|
p2274
sI2273
V|smiles|
p2275
sI2274
V|smoke
p2276
sI2275
V|smooth
p2277
sI2276
V|smudge|
p2278
sI2277
V|snack!|
p2279
sI2278
V|snake.|
p2280
sI2279
V|snick
p2281
sI2280
V|snort
p2282
sI2281
V|so.|
p2283
sI2282
V|soft
p2284
sI2283
V|soil|
p2285
sI2284
V|son
p2286
sI2285
V|son!|
p2287
sI2286
V|song
p2288
sI2287
V|sore|
p2289
sI2288
V|sort.|
p2290
sI2289
V|soule|
p2291
sI2290
V|sound
p2292
sI2291
V|south
p2293
sI2292
V|speak.|
p2294
sI2293
V|speak|
p2295
sI2294
V|spears|
p2296
sI2295
V|spec
p2297
sI2296
V|speech
p2298
sI2297
V|spher
p2299
sI2298
V|sphere|
p2300
sI2299
V|spied|
p2301
sI2300
V|spikes|
p2302
sI2301
V|spill|
p2303
sI2302
V|splen
p2304
sI2303
V|split|
p2305
sI2304
V|spots|
p2306
sI2305
V|spout|
p2307
sI2306
V|spread
p2308
sI2307
V|springs!|
p2309
sI2308
V|spring|
p2310
sI2309
V|sprung|
p2311
sI2310
V|spurt|
p2312
sI2311
V|stain
p2313
sI2312
V|stair?|
p2314
sI2313
V|stake|
p2315
sI2314
V|stalks|
p2316
sI2315
V|stamped|
p2317
sI2316
V|stand
p2318
sI2317
V|stand.|
p2319
sI2318
V|starved|
p2320
sI2319
V|stay|
p2321
sI2320
V|steals|
p2322
sI2321
V|stee
p2323
sI2322
V|steeds|
p2324
sI2323
V|steep|
p2325
sI2324
V|stirred|
p2326
sI2325
V|stir|
p2327
sI2326
V|sto
p2328
sI2327
V|stop|
p2329
sI2328
V|storm
p2330
sI2329
V|storms|
p2331
sI2330
V|storm|
p2332
sI2331
V|straw
p2333
sI2332
V|stream
p2334
sI2333
V|streamed|
p2335
sI2334
V|strid
p2336
sI2335
V|strings|
p2337
sI2336
V|string|
p2338
sI2337
V|strives|
p2339
sI2338
V|struc
p2340
sI2339
V|stu
p2341
sI2340
V|sub
p2342
sI2341
V|sucked|
p2343
sI2342
V|suf
p2344
sI2343
V|sun.|
p2345
sI2344
V|sunk
p2346
sI2345
V|sup
p2347
sI2346
V|surg
p2348
sI2347
V|surge.|
p2349
sI2348
V|swal
p2350
sI2349
V|sweeps|
p2351
sI2350
V|swift's|
p2352
sI2351
V|swing|
p2353
sI2352
V|swoon|
p2354
sI2353
V|sword
p2355
sI2354
V|swords|
p2356
sI2355
V|sword|
p2357
sI2356
V|syl
p2358
sI2357
V|tack
p2359
sI2358
V|tail|
p2360
sI2359
V|tap|
p2361
sI2360
V|tasks|
p2362
sI2361
V|task|
p2363
sI2362
V|tear|
p2364
sI2363
V|tempt
p2365
sI2364
V|th'un
p2366
sI2365
V|that's|
p2367
sI2366
V|thawed|
p2368
sI2367
V|thee.|
p2369
sI2368
V|thee?|
p2370
sI2369
V|them.|
p2371
sI2370
V|then.|
p2372
sI2371
V|then?|
p2373
sI2372
V|thence|
p2374
sI2373
V|there
p2375
sI2374
V|there's|
p2376
sI2375
V|thin!|
p2377
sI2376
V|thing!|
p2378
sI2377
V|thinks|
p2379
sI2378
V|thirst
p2380
sI2379
V|thorn|
p2381
sI2380
V|thow|
p2382
sI2381
V|thrall!|
p2383
sI2382
V|thread
p2384
sI2383
V|thresh
p2385
sI2384
V|threw|
p2386
sI2385
V|thrice|
p2387
sI2386
V|throat|
p2388
sI2387
V|throb
p2389
sI2388
V|through.|
p2390
sI2389
V|thrown|
p2391
sI2390
V|throw|
p2392
sI2391
V|thru
p2393
sI2392
V|thrush|
p2394
sI2393
V|ti
p2395
sI2394
V|time
p2396
sI2395
V|times|
p2397
sI2396
V|ting|
p2398
sI2397
V|to
p2399
sI2398
V|toil|
p2400
sI2399
V|tomb|
p2401
sI2400
V|too.|
p2402
sI2401
V|tor
p2403
sI2402
V|touch|
p2404
sI2403
V|towards|
p2405
sI2404
V|town|
p2406
sI2405
V|toyle|
p2407
sI2406
V|tram
p2408
sI2407
V|trans
p2409
sI2408
V|trees|
p2410
sI2409
V|tress
p2411
sI2410
V|tries?|
p2412
sI2411
V|troth|
p2413
sI2412
V|trum
p2414
sI2413
V|trunk
p2415
sI2414
V|trust.|
p2416
sI2415
V|trust|
p2417
sI2416
V|try
p2418
sI2417
V|try|
p2419
sI2418
V|tul
p2420
sI2419
V|tum
p2421
sI2420
V|tur
p2422
sI2421
V|turned|
p2423
sI2422
V|twi
p2424
sI2423
V|twice|
p2425
sI2424
V|twist|
p2426
sI2425
V|uf
p2427
sI2426
V|up.|
p2428
sI2427
V|used|
p2429
sI2428
V|use|
p2430
sI2429
V|ut
p2431
sI2430
V|v
p2432
sI2431
V|va
p2433
sI2432
V|val
p2434
sI2433
V|van
p2435
sI2434
V|vault
p2436
sI2435
V|veins|
p2437
sI2436
V|verse?|
p2438
sI2437
V|vest|
p2439
sI2438
V|vexed.|
p2440
sI2439
V|vice
p2441
sI2440
V|vis
p2442
sI2441
V|voic
p2443
sI2442
V|voice
p2444
sI2443
V|vor
p2445
sI2444
V|vows|
p2446
sI2445
V|wait.|
p2447
sI2446
V|waits|
p2448
sI2447
V|wait|
p2449
sI2448
V|walk
p2450
sI2449
V|walls|
p2451
sI2450
V|wand'
p2452
sI2451
V|wan|
p2453
sI2452
V|war
p2454
sI2453
V|war!|
p2455
sI2454
V|wards|
p2456
sI2455
V|warm'd|
p2457
sI2456
V|warmed|
p2458
sI2457
V|warm|
p2459
sI2458
V|warn
p2460
sI2459
V|warp
p2461
sI2460
V|warre|
p2462
sI2461
V|wast
p2463
sI2462
V|wastes|
p2464
sI2463
V|watched|
p2465
sI2464
V|waue?|
p2466
sI2465
V|ways|
p2467
sI2466
V|weak
p2468
sI2467
V|weak|
p2469
sI2468
V|wealth|
p2470
sI2469
V|weaned|
p2471
sI2470
V|weav
p2472
sI2471
V|web|
p2473
sI2472
V|weeps|
p2474
sI2473
V|weigh|
p2475
sI2474
V|wept|
p2476
sI2475
V|wer|
p2477
sI2476
V|west
p2478
sI2477
V|west?|
p2479
sI2478
V|wet|
p2480
sI2479
V|wharf|
p2481
sI2480
V|what's|
p2482
sI2481
V|wheel|
p2483
sI2482
V|whence|
p2484
sI2483
V|whif
p2485
sI2484
V|while|
p2486
sI2485
V|whilst|
p2487
sI2486
V|whip|
p2488
sI2487
V|whist
p2489
sI2488
V|who
p2490
sI2489
V|whole|
p2491
sI2490
V|wid
p2492
sI2491
V|wild.|
p2493
sI2492
V|wim
p2494
sI2493
V|wind
p2495
sI2494
V|wind.|
p2496
sI2495
V|wines|
p2497
sI2496
V|wings.|
p2498
sI2497
V|wink|
p2499
sI2498
V|win|
p2500
sI2499
V|wist
p2501
sI2500
V|witch|
p2502
sI2501
V|wood
p2503
sI2502
V|wor
p2504
sI2503
V|works|
p2505
sI2504
V|worth
p2506
sI2505
V|worth|
p2507
sI2506
V|wound|
p2508
sI2507
V|wove|
p2509
sI2508
V|wreck|
p2510
sI2509
V|writ
p2511
sI2510
V|wrought.|
p2512
sI2511
V|wrought|
p2513
sI2512
V|wyll|
p2514
sI2513
V|wynde|
p2515
sI2514
V|xan
p2516
sI2515
V|year's|
p2517
sI2516
V|years
p2518
sI2517
V|years!|
p2519
sI2518
V|years.|
p2520
sI2519
V|yells|
p2521
sI2520
V|yes
p2522
sI2521
V|ye|
p2523
sI2522
V|yf|
p2524
sI2523
V|yn|
p2525
sI2524
V|yore.|
p2526
sI2525
V|you're|
p2527
sI2526
V|you?|
p2528
sI2527
V|zeph
p2529
sI2528
V|zone|
p2530
ss.