(dp1
S'id_to_char'
p2
(dp3
I0
Ve
sI1
Vt
sI2
Va
sI3
Vo
sI4
Vn
sI5
Vh
sI6
Vs
sI7
Vi
sI8
Vr
sI9
Vl
sI10
Vd
sI11
Vw
sI12
Vm
sI13
Vu
sI14
Vg
sI15
Vf
sI16
Vc
sI17
Vy
sI18
Vb
sI19
Vp
sI20
Vv
sI21
Vk
sI22
Vz
sI23
Vj
sI24
Vx
sI25
Vq
ssS'id_to_tag'
p4
(dp5
I0
V+
sI1
V-
ssS'id_to_word'
p6
(dp7
I0
S'<UNK>'
p8
sI1
Vthe
p9
sI2
Vand
p10
sI3
Va
sI4
Vin
p11
sI5
Vof
p12
sI6
Vto
p13
sI7
Ving
p14
sI8
Vi
sI9
Vthat
p15
sI10
Vwith
p16
sI11
Vbe
p17
sI12
Vmy
p18
sI13
Vme
p19
sI14
Ver
p20
sI15
Vas
p21
sI16
Von
p22
sI17
Vfor
p23
sI18
Vly
p24
sI19
Vhis
p25
sI20
Vit
p26
sI21
Vis
p27
sI22
Vnot
p28
sI23
Vlove
p29
sI24
Vo
sI25
Vor
p30
sI26
Vfrom
p31
sI27
Vwhen
p32
sI28
Vall
p33
sI29
Vno
p34
sI30
Vbut
p35
sI31
Vhe
p36
sI32
Ven
p37
sI33
Vter
p38
sI34
Vy
sI35
Ved
p39
sI36
Vso
p40
sI37
Vone
p41
sI38
Vre
p42
sI39
Vher
p43
sI40
Vthou
p44
sI41
Vwas
p45
sI42
Vat
p46
sI43
Vhave
p47
sI44
Vwhere
p48
sI45
Vnight
p49
sI46
Vun
p50
sI47
Vthen
p51
sI48
Vver
p52
sI49
Vwhat
p53
sI50
Ve
sI51
Vlike
p54
sI52
Vnow
p55
sI53
Vby
p56
sI54
Vde
p57
sI55
Vless
p58
sI56
Vlong
p59
sI57
Vthy
p60
sI58
Vcan
p61
sI59
Vhim
p62
sI60
Vhow
p63
sI61
Van
p64
sI62
Vup
p65
sI63
Vest
p66
sI64
Vman
p67
sI65
Vyou
p68
sI66
Vtheir
p69
sI67
Vthere
p70
sI68
Vwhich
p71
sI69
Vare
p72
sI70
Vcome
p73
sI71
Vout
p74
sI72
Vwe
p75
sI73
Vder
p76
sI74
Vshe
p77
sI75
Vthey
p78
sI76
Vyet
p79
sI77
Veyes
p80
sI78
Vlight
p81
sI79
Vour
p82
sI80
Vthis
p83
sI81
Vwho
p84
sI82
Vdo
p85
sI83
Vers
p86
sI84
Vif
p87
sI85
Vwere
p88
sI86
Vfar
p89
sI87
Vlow
p90
sI88
Vsweet
p91
sI89
Vthem
p92
sI90
Vthee
p93
sI91
Vday
p94
sI92
Vdeath
p95
sI93
Ves
p96
sI94
Vfi
p97
sI95
Vnor
p98
sI96
Vround
p99
sI97
Vsee
p100
sI98
Vshall
p101
sI99
Vsome
p102
sI100
Vway
p103
sI101
Vwill
p104
sI102
Vber
p105
sI103
Vcold
p106
sI104
Vcon
p107
sI105
Vits
p108
sI106
Vsleep
p109
sI107
Vtle
p110
sI108
Vty
p111
sI109
Vfall
p112
sI110
Vla
p113
sI111
Vlet
p114
sI112
Vmay
p115
sI113
Vness
p116
sI114
Vsea
p117
sI115
Vsun
p118
sI116
Vthrough
p119
sI117
Vus
p120
sI118
Val
p121
sI119
Vble
p122
sI120
Vden
p123
sI121
Vdid
p124
sI122
Vna
p125
sI123
Vtime
p126
sI124
Vtion
p127
sI125
Vcould
p128
sI126
Vdoth
p129
sI127
Vheart
p130
sI128
Vhere
p131
sI129
Vlife
p132
sI130
Vmor
p133
sI131
Vmore
p134
sI132
Vper
p135
sI133
Vtain
p136
sI134
Vtoo
p137
sI135
Vwin
p138
sI136
Vwould
p139
sI137
Vblack
p140
sI138
Vev
p141
sI139
Vex
p142
sI140
Vgain
p143
sI141
Vhand
p144
sI142
Vous
p145
sI143
Vself
p146
sI144
Vside
p147
sI145
Vtell
p148
sI146
Vthese
p149
sI147
Vthought
p150
sI148
Vam
p151
sI149
Vart
p152
sI150
Vdown
p153
sI151
Vearth
p154
sI152
Vfair
p155
sI153
Vgod
p156
sI154
Vhigh
p157
sI155
Vlov
p158
sI156
Vmake
p159
sI157
Vmust
p160
sI158
Vplace
p161
sI159
Vry
p162
sI160
Vshould
p163
sI161
Vstill
p164
sI162
Vsuch
p165
sI163
Vther
p166
sI164
Vthough
p167
sI165
Vair
p168
sI166
Vbeau
p169
sI167
Vbright
p170
sI168
Vdeep
p171
sI169
Vdi
p172
sI170
Vdream
p173
sI171
Vend
p174
sI172
Vface
p175
sI173
Vfree
p176
sI174
Vgo
p177
sI175
Vhalf
p178
sI176
Vhath
p179
sI177
Vhead
p180
sI178
Vheav
p181
sI179
Vlit
p182
sI180
Vlone
p183
sI181
Vmade
p184
sI182
Vro
p185
sI183
Vslow
p186
sI184
Vsound
p187
sI185
Vthing
p188
sI186
Vthose
p189
sI187
Vback
p190
sI188
Vblue
p191
sI189
Vbout
p192
sI190
Vdark
p193
sI191
Veach
p194
sI192
Vel
p195
sI193
Vfear
p196
sI194
Vfore
p197
sI195
Vful
p198
sI196
Vget
p199
sI197
Vhad
p200
sI198
Vlast
p201
sI199
Vli
p202
sI200
Vloves
p203
sI201
Vmine
p204
sI202
Vmo
p205
sI203
Vnone
p206
sI204
Vonce
p207
sI205
Vpale
p208
sI206
Vpart
p209
sI207
Vpas
p210
sI208
Vrest
p211
sI209
Vsay
p212
sI210
Vseen
p213
sI211
Vsi
p214
sI212
Vsion
p215
sI213
Vsnow
p216
sI214
Vtill
p217
sI215
Vtwo
p218
sI216
Vwell
p219
sI217
Vwent
p220
sI218
Vwhose
p221
sI219
Vyour
p222
sI220
Vac
p223
sI221
Var
p224
sI222
Varms
p225
sI223
Vbed
p226
sI224
Vbove
p227
sI225
Vbreak
p228
sI226
Vbreath
p229
sI227
Vdie
p230
sI228
Vdis
p231
sI229
Vdreams
p232
sI230
Vfast
p233
sI231
Vfeel
p234
sI232
Vfoot
p235
sI233
Vger
p236
sI234
Vgood
p237
sI235
Vgrace
p238
sI236
Vgreen
p239
sI237
Vheard
p240
sI238
Vish
p241
sI239
Vking
p242
sI240
Vlie
p243
sI241
Vlies
p244
sI242
Vlines
p245
sI243
Vmans
p246
sI244
Vmem
p247
sI245
Vmer
p248
sI246
Vneath
p249
sI247
Vnev
p250
sI248
Vning
p251
sI249
Voh
p252
sI250
Voth
p253
sI251
Vown
p254
sI252
Vpass
p255
sI253
Vsing
p256
sI254
Vson
p257
sI255
Vsong
p258
sI256
Vthan
p259
sI257
Vture
p260
sI258
Vturn
p261
sI259
Vu
sI260
Vure
p262
sI261
Vven
p263
sI262
Vvi
p264
sI263
Vwild
p265
sI264
Vwood
p266
sI265
Vyears
p267
sI266
Vaf
p268
sI267
Vbat
p269
sI268
Vbirds
p270
sI269
Vbours
p271
sI270
Vbrain
p272
sI271
Vcall
p273
sI272
Vcept
p274
sI273
Vclose
p275
sI274
Vcom
p276
sI275
Vcomes
p277
sI276
Vcret
p278
sI277
Vcur
p279
sI278
Vcut
p280
sI279
Vdead
p281
sI280
Vdle
p282
sI281
Vdome
p283
sI282
Vdone
p284
sI283
Vered
p285
sI284
Veth
p286
sI285
Veve
p287
sI286
Vfail
p288
sI287
Vfan
p289
sI288
Vflow
p290
sI289
Vflows
p291
sI290
Vfresh
p292
sI291
Vgar
p293
sI292
Vgive
p294
sI293
Vgold
p295
sI294
Vhands
p296
sI295
Vhas
p297
sI296
Vho
p298
sI297
Vhuge
p299
sI298
Vim
p300
sI299
Vland
p301
sI300
Vleap
p302
sI301
Vlights
p303
sI302
Vlive
p304
sI303
Vma
p305
sI304
Vmid
p306
sI305
Vmight
p307
sI306
Vmost
p308
sI307
Vmuch
p309
sI308
Vni
p310
sI309
Vnoth
p311
sI310
Voff
p312
sI311
Vold
p313
sI312
Vpleas
p314
sI313
Vpos
p315
sI314
Vra
p316
sI315
Vrow
p317
sI316
Vsaid
p318
sI317
Vse
p319
sI318
Vspread
p320
sI319
Vsprings
p321
sI320
Vstand
p322
sI321
Vstate
p323
sI322
Vstrange
p324
sI323
Vsum
p325
sI324
Vtake
p326
sI325
Vtal
p327
sI326
Vten
p328
sI327
Vters
p329
sI328
Vthus
p330
sI329
Vtimes
p331
sI330
Vtrue
p332
sI331
Vtures
p333
sI332
Vtwas
p334
sI333
Vverse
p335
sI334
Vvoice
p336
sI335
Vwa
p337
sI336
Vwan
p338
sI337
Vways
p339
sI338
Vwest
p340
sI339
Vwind
p341
sI340
Vwo
p342
sI341
Vwon
p343
sI342
Vworld
p344
sI343
Vad
p345
sI344
Vage
p346
sI345
Vah
p347
sI346
Vap
p348
sI347
Vbeen
p349
sI348
Vbird
p350
sI349
Vbled
p351
sI350
Vblood
p352
sI351
Vblow
p353
sI352
Vbor
p354
sI353
Vbound
p355
sI354
Vbrave
p356
sI355
Vburn
p357
sI356
Vcast
p358
sI357
Vcheeks
p359
sI358
Vchild
p360
sI359
Vcloud
p361
sI360
Vcries
p362
sI361
Vdare
p363
sI362
Vdiv
p364
sI363
Vdog
p365
sI364
Vdrop
p366
sI365
Vear
p367
sI366
Vease
p368
sI367
Vei
p369
sI368
Vem
p370
sI369
Veye
p371
sI370
Vfac
p372
sI371
Vfalls
p373
sI372
Vfew
p374
sI373
Vfour
p375
sI374
Vfur
p376
sI375
Vgazed
p377
sI376
Vgen
p378
sI377
Vges
p379
sI378
Vglad
p380
sI379
Vgone
p381
sI380
Vgray
p382
sI381
Vgreat
p383
sI382
Vhap
p384
sI383
Vhear
p385
sI384
Vhearts
p386
sI385
Vheat
p387
sI386
Vhind
p388
sI387
Vhon
p389
sI388
Vice
p390
sI389
Vion
p391
sI390
Vjoy
p392
sI391
Vjust
p393
sI392
Vkneel
p394
sI393
Vknew
p395
sI394
Vknow
p396
sI395
Vleave
p397
sI396
Vleft
p398
sI397
Vlets
p399
sI398
Vloud
p400
sI399
Vmakes
p401
sI400
Vmas
p402
sI401
Vmazed
p403
sI402
Vmers
p404
sI403
Vmet
p405
sI404
Vmi
p406
sI405
Vmil
p407
sI406
Vmur
p408
sI407
Vnal
p409
sI408
Vnear
p410
sI409
Vnew
p411
sI410
Vnext
p412
sI411
Vny
p413
sI412
Vpair
p414
sI413
Vpen
p415
sI414
Vplain
p416
sI415
Vple
p417
sI416
Vquick
p418
sI417
Vri
p419
sI418
Vrid
p420
sI419
Vriv
p421
sI420
Vrose
p422
sI421
Vrun
p423
sI422
Vsad
p424
sI423
Vsands
p425
sI424
Vsaw
p426
sI425
Vseemed
p427
sI426
Vshake
p428
sI427
Vshore
p429
sI428
Vshort
p430
sI429
Vsin
p431
sI430
Vskies
p432
sI431
Vsoft
p433
sI432
Vstar
p434
sI433
Vstream
p435
sI434
Vsure
p436
sI435
Vswift
p437
sI436
Vtak
p438
sI437
Vthings
p439
sI438
Vthinks
p440
sI439
Vthun
p441
sI440
Vties
p442
sI441
Vtil
p443
sI442
Vting
p444
sI443
Vtrav
p445
sI444
Vtrod
p446
sI445
Vtry
p447
sI446
Vur
p448
sI447
Vview
p449
sI448
Vwait
p450
sI449
Vward
p451
sI450
Vwards
p452
sI451
Vware
p453
sI452
Vwhom
p454
sI453
Vwilt
p455
sI454
Vwish
p456
sI455
Vwoe
p457
sI456
Vword
p458
sI457
Vwork
p459
sI458
Vwrought
p460
sI459
Vab
p461
sI460
Vact
p462
sI461
Vant
p463
sI462
Varch
p464
sI463
Vbark
p465
sI464
Vbells
p466
sI465
Vbered
p467
sI466
Vbers
p468
sI467
Vbest
p469
sI468
Vbide
p470
sI469
Vblind
p471
sI470
Vbo
p472
sI471
Vboth
p473
sI472
Vbra
p474
sI473
Vbring
p475
sI474
Vbrings
p476
sI475
Vbrows
p477
sI476
Vcal
p478
sI477
Vcame
p479
sI478
Vcause
p480
sI479
Vcaves
p481
sI480
Vcay
p482
sI481
Vcell
p483
sI482
Vchance
p484
sI483
Vcient
p485
sI484
Vcle
p486
sI485
Vclos
p487
sI486
Vclothes
p488
sI487
Vcloths
p489
sI488
Vclouds
p490
sI489
Vcount
p491
sI490
Vcourse
p492
sI491
Vcrag
p493
sI492
Vd
sI493
Vdear
p494
sI494
Vdel
p495
sI495
Vdered
p496
sI496
Vdes
p497
sI497
Vdew
p498
sI498
Vdif
p499
sI499
Vdim
p500
sI500
Vdise
p501
sI501
Vdoor
p502
sI502
Vdrous
p503
sI503
Vere
p504
sI504
Vests
p505
sI505
Vfed
p506
sI506
Vfee
p507
sI507
Vfeet
p508
sI508
Vfell
p509
sI509
Vfer
p510
sI510
Vfirst
p511
sI511
Vflood
p512
sI512
Vforth
p513
sI513
Vfound
p514
sI514
Vfrag
p515
sI515
Vframe
p516
sI516
Vfro
p517
sI517
Vfull
p518
sI518
Vghost
p519
sI519
Vgiv
p520
sI520
Vgives
p521
sI521
Vglit
p522
sI522
Vgoes
p523
sI523
Vgrass
p524
sI524
Vgrave
p525
sI525
Vgrot
p526
sI526
Vgrow
p527
sI527
Vhar
p528
sI528
Vhast
p529
sI529
Vheight
p530
sI530
Vhid
p531
sI531
Vhide
p532
sI532
Vhill
p533
sI533
Vhills
p534
sI534
Vhold
p535
sI535
Vhome
p536
sI536
Vhood
p537
sI537
Vhu
p538
sI538
Vhung
p539
sI539
Vid
p540
sI540
Vie
p541
sI541
Vill
p542
sI542
Vished
p543
sI543
Vju
p544
sI544
Vken
p545
sI545
Vkings
p546
sI546
Vkiss
p547
sI547
Vknight
p548
sI548
Vlain
p549
sI549
Vlat
p550
sI550
Vlent
p551
sI551
Vlips
p552
sI552
Vlist
p553
sI553
Vlives
p554
sI554
Vlo
p555
sI555
Vlook
p556
sI556
Vlose
p557
sI557
Vmen
p558
sI558
Vment
p559
sI559
Vmind
p560
sI560
Vmoon
p561
sI561
Vmoone
p562
sI562
Vmorn
p563
sI563
Vmourn
p564
sI564
Vmove
p565
sI565
Vmu
p566
sI566
Vname
p567
sI567
Vneigh
p568
sI568
Vnum
p569
sI569
Vpa
p570
sI570
Vpal
p571
sI571
Vpar
p572
sI572
Vpast
p573
sI573
Vpause
p574
sI574
Vphoeb
p575
sI575
Vpi
p576
sI576
Vplayed
p577
sI577
Vpris
p578
sI578
Vque
p579
sI579
Vrap
p580
sI580
Vred
p581
sI581
Vres
p582
sI582
Vring
p583
sI583
Vrise
p584
sI584
Vrocks
p585
sI585
Vroun
p586
sI586
Vsec
p587
sI587
Vseek
p588
sI588
Vshad
p589
sI589
Vsharp
p590
sI590
Vshine
p591
sI591
Vship
p592
sI592
Vsic
p593
sI593
Vsilks
p594
sI594
Vsince
p595
sI595
Vsir
p596
sI596
Vsit
p597
sI597
Vsky
p598
sI598
Vslum
p599
sI599
Vsmooth
p600
sI600
Vsoon
p601
sI601
Vsought
p602
sI602
Vspent
p603
sI603
Vspir
p604
sI604
Vspon
p605
sI605
Vstant
p606
sI606
Vstars
p607
sI607
Vsteps
p608
sI608
Vstood
p609
sI609
Vstreet
p610
sI610
Vsud
p611
sI611
Vsus
p612
sI612
Vsy
p613
sI613
Vsym
p614
sI614
Vted
p615
sI615
Vtest
p616
sI616
Vthin
p617
sI617
Vthine
p618
sI618
Vthink
p619
sI619
Vthirst
p620
sI620
Vthro
p621
sI621
Vthrong
p622
sI622
Vtold
p623
sI623
Vtook
p624
sI624
Vtured
p625
sI625
Vuse
p626
sI626
Vvens
p627
sI627
Vvice
p628
sI628
Vvis
p629
sI629
Vvive
p630
sI630
Vwalk
p631
sI631
Vwant
p632
sI632
Vwatch
p633
sI633
Vwhile
p634
sI634
Vwhis
p635
sI635
Vyea
p636
sI636
Vyond
p637
sI637
Vyoung
p638
sI638
Vail
p639
sI639
Vask
p640
sI640
Vate
p641
sI641
Vbare
p642
sI642
Vbarks
p643
sI643
Vbear
p644
sI644
Vbeat
p645
sI645
Vbend
p646
sI646
Vbent
p647
sI647
Vbid
p648
sI648
Vbil
p649
sI649
Vbit
p650
sI650
Vbold
p651
sI651
Vborne
p652
sI652
Vboys
p653
sI653
Vbreaks
p654
sI654
Vbreast
p655
sI655
Vbreathe
p656
sI656
Vbred
p657
sI657
Vbril
p658
sI658
Vbus
p659
sI659
Vca
p660
sI660
Vcase
p661
sI661
Vcat
p662
sI662
Vcatch
p663
sI663
Vcaught
p664
sI664
Vce
p665
sI665
Vcease
p666
sI666
Vcel
p667
sI667
Vcem
p668
sI668
Vcence
p669
sI669
Vces
p670
sI670
Vchain
p671
sI671
Vchange
p672
sI672
Vchant
p673
sI673
Vchasm
p674
sI674
Vchide
p675
sI675
Vchief
p676
sI676
Vchrist
p677
sI677
Vci
p678
sI678
Vcit
p679
sI679
Vclean
p680
sI680
Vclev
p681
sI681
Vclimbst
p682
sI682
Vcoat
p683
sI683
Vcov
p684
sI684
Vcried
p685
sI685
Vcult
p686
sI686
Vcurse
p687
sI687
Vcy
p688
sI688
Vdan
p689
sI689
Vdanc
p690
sI690
Vdays
p691
sI691
Vdeaths
p692
sI692
Vded
p693
sI693
Vdeemd
p694
sI694
Vdick
p695
sI695
Vdied
p696
sI696
Vding
p697
sI697
Vdled
p698
sI698
Vdom
p699
sI699
Vdour
p700
sI700
Vdraw
p701
sI701
Vdrawn
p702
sI702
Vdread
p703
sI703
Vdreamed
p704
sI704
Vdriv
p705
sI705
Vdrunk
p706
sI706
Vdry
p707
sI707
Vdue
p708
sI708
Vdul
p709
sI709
Vdur
p710
sI710
Vdust
p711
sI711
Vels
p712
sI712
Velse
p713
sI713
Vent
p714
sI714
Vey
p715
sI715
Vfad
p716
sI716
Vfade
p717
sI717
Vfae
p718
sI718
Vfaint
p719
sI719
Vfaith
p720
sI720
Vfal
p721
sI721
Vfea
p722
sI722
Vfears
p723
sI723
Vfeelst
p724
sI724
Vfin
p725
sI725
Vfine
p726
sI726
Vfire
p727
sI727
Vfive
p728
sI728
Vflame
p729
sI729
Vflee
p730
sI730
Vfleet
p731
sI731
Vflesh
p732
sI732
Vflies
p733
sI733
Vfol
p734
sI734
Vfond
p735
sI735
Vforce
p736
sI736
Vform
p737
sI737
Vfoun
p738
sI738
Vfount
p739
sI739
Vfreez
p740
sI740
Vfriends
p741
sI741
Vgal
p742
sI742
Vgasp
p743
sI743
Vgath
p744
sI744
Vgaz
p745
sI745
Vgels
p746
sI746
Vgi
p747
sI747
Vgim
p748
sI748
Vgin
p749
sI749
Vgins
p750
sI750
Vgloom
p751
sI751
Vgoves
p752
sI752
Vground
p753
sI753
Vgrowth
p754
sI754
Vguisht
p755
sI755
Vgyre
p756
sI756
Vhail
p757
sI757
Vhair
p758
sI758
Vhang
p759
sI759
Vhaps
p760
sI760
Vhard
p761
sI761
Vhaste
p762
sI762
Vhate
p763
sI763
Vheavens
p764
sI764
Vheld
p765
sI765
Vhelp
p766
sI766
Vhem
p767
sI767
Vhoods
p768
sI768
Vhope
p769
sI769
Vhot
p770
sI770
Vhour
p771
sI771
Vies
p772
sI772
Vig
p773
sI773
Vil
p774
sI774
Vjab
p775
sI775
Vjot
p776
sI776
Vjub
p777
sI777
Vjudge
p778
sI778
Vked
p779
sI779
Vkeep
p780
sI780
Vkin
p781
sI781
Vkind
p782
sI782
Vkled
p783
sI783
Vknots
p784
sI784
Vknows
p785
sI785
Vkra
p786
sI786
Vlaid
p787
sI787
Vlake
p788
sI788
Vlan
p789
sI789
Vlarge
p790
sI790
Vle
p791
sI791
Vlearn
p792
sI792
Vleaves
p793
sI793
Vlen
p794
sI794
Vlence
p795
sI795
Vler
p796
sI796
Vlev
p797
sI797
Vlia
p798
sI798
Vlig
p799
sI799
Vling
p800
sI800
Vlion
p801
sI801
Vlodg
p802
sI802
Vlookes
p803
sI803
Vlop
p804
sI804
Vlost
p805
sI805
Vlovd
p806
sI806
Vloved
p807
sI807
Vmai
p808
sI808
Vmaid
p809
sI809
Vmains
p810
sI810
Vmal
p811
sI811
Vmanned
p812
sI812
Vmatch
p813
sI813
Vmaz
p814
sI814
Vmean
p815
sI815
Vmeas
p816
sI816
Vmed
p817
sI817
Vmeet
p818
sI818
Vmelt
p819
sI819
Vmend
p820
sI820
Vmiles
p821
sI821
Vmim
p822
sI822
Vmin
p823
sI823
Vmir
p824
sI824
Vmit
p825
sI825
Vmock
p826
sI826
Vmon
p827
sI827
Vmoun
p828
sI828
Vmous
p829
sI829
Vmov
p830
sI830
Vmoved
p831
sI831
Vmoves
p832
sI832
Vnar
p833
sI833
Vnay
p834
sI834
Vneeds
p835
sI835
Vnei
p836
sI836
Vnest
p837
sI837
Vnoon
p838
sI838
Voer
p839
sI839
Vov
p840
sI840
Vow
p841
sI841
Vpace
p842
sI842
Vpaine
p843
sI843
Vpearl
p844
sI844
Vpears
p845
sI845
Vpered
p846
sI846
Vpiece
p847
sI847
Vpile
p848
sI848
Vpoint
p849
sI849
Vpol
p850
sI850
Vpose
p851
sI851
Vpre
p852
sI852
Vpride
p853
sI853
Vpro
p854
sI854
Vprompt
p855
sI855
Vproved
p856
sI856
Vpulse
p857
sI857
Vpy
p858
sI858
Vquaint
p859
sI859
Vquench
p860
sI860
Vrayne
p861
sI861
Vrea
p862
sI862
Vreade
p863
sI863
Vrent
p864
sI864
Vret
p865
sI865
Vrich
p866
sI866
Vrites
p867
sI867
Vroar
p868
sI868
Vron
p869
sI869
Vroom
p870
sI870
Vror
p871
sI871
Vrors
p872
sI872
Vrowes
p873
sI873
Vrows
p874
sI874
Vroy
p875
sI875
Vrys
p876
sI876
Vsa
p877
sI877
Vsage
p878
sI878
Vsand
p879
sI879
Vsave
p880
sI880
Vscorne
p881
sI881
Vscythe
p882
sI882
Vsedge
p883
sI883
Vseems
p884
sI884
Vselves
p885
sI885
Vsense
p886
sI886
Vsesse
p887
sI887
Vset
p888
sI888
Vshade
p889
sI889
Vshare
p890
sI890
Vsharpe
p891
sI891
Vsick
p892
sI892
Vsid
p893
sI893
Vsil
p894
sI894
Vsleepe
p895
sI895
Vslith
p896
sI896
Vsmell
p897
sI897
Vsmile
p898
sI898
Vsort
p899
sI899
Vsoul
p900
sI900
Vsouls
p901
sI901
Vspair
p902
sI902
Vspeech
p903
sI903
Vspeed
p904
sI904
Vsphere
p905
sI905
Vsplen
p906
sI906
Vspring
p907
sI907
Vstain
p908
sI908
Vstead
p909
sI909
Vsteeds
p910
sI910
Vstorm
p911
sI911
Vstraight
p912
sI912
Vstrain
p913
sI913
Vstreams
p914
sI914
Vstretched
p915
sI915
Vsuit
p916
sI916
Vsur
p917
sI917
Vswamp
p918
sI918
Vswell
p919
sI919
Vsword
p920
sI920
Vsyl
p921
sI921
Vta
p922
sI922
Vtakes
p923
sI923
Vtalked
p924
sI924
Vtall
p925
sI925
Vtears
p926
sI926
Vtent
p927
sI927
Vtheres
p928
sI928
Vthoughts
p929
sI929
Vthrall
p930
sI930
Vthur
p931
sI931
Vtide
p932
sI932
Vtient
p933
sI933
Vtions
p934
sI934
Vtis
p935
sI935
Vtled
p936
sI936
Vton
p937
sI937
Vtor
p938
sI938
Vtoves
p939
sI939
Vtow
p940
sI940
Vtowards
p941
sI941
Vtown
p942
sI942
Vtread
p943
sI943
Vtree
p944
sI944
Vtrees
p945
sI945
Vtrem
p946
sI946
Vtri
p947
sI947
Vtries
p948
sI948
Vtron
p949
sI949
Vtrou
p950
sI950
Vtruth
p951
sI951
Vtune
p952
sI952
Vtween
p953
sI953
Vures
p954
sI954
Vused
p955
sI955
Vva
p956
sI956
Vval
p957
sI957
Vvale
p958
sI958
Vvent
p959
sI959
Vvest
p960
sI960
Vvexed
p961
sI961
Vvir
p962
sI962
Vvows
p963
sI963
Vwabe
p964
sI964
Vwag
p965
sI965
Vwail
p966
sI966
Vwak
p967
sI967
Vwanne
p968
sI968
Vwar
p969
sI969
Vwaste
p970
sI970
Vwave
p971
sI971
Vwaves
p972
sI972
Vwear
p973
sI973
Vwears
p974
sI974
Vweave
p975
sI975
Vweigh
p976
sI976
Vweight
p977
sI977
Vwhite
p978
sI978
Vwhy
p979
sI979
Vwide
p980
sI980
Vwinds
p981
sI981
Vwing
p982
sI982
Vwings
p983
sI983
Vwit
p984
sI984
Vwock
p985
sI985
Vwords
p986
sI986
Vworth
p987
sI987
Vwouldst
p988
sI988
Vwrin
p989
sI989
Vyel
p990
sI990
Vyes
p991
sI991
Vyouth
p992
sI992
Vys
p993
sI993
Vzen
p994
sI994
Vaim
p995
sI995
Vanc
p996
sI996
Vance
p997
sI997
Vard
p998
sI998
Varmes
p999
sI999
Vaught
p1000
sI1000
Vaut
p1001
sI1001
Vax
p1002
sI1002
Vaz
p1003
sI1003
Vbal
p1004
sI1004
Vbald
p1005
sI1005
Vban
p1006
sI1006
Vbanke
p1007
sI1007
Vbar
p1008
sI1008
Vbase
p1009
sI1009
Vbea
p1010
sI1010
Vbeams
p1011
sI1011
Vbears
p1012
sI1012
Vbeast
p1013
sI1013
Vbeds
p1014
sI1014
Vbees
p1015
sI1015
Vbel
p1016
sI1016
Vbell
p1017
sI1017
Vbelle
p1018
sI1018
Vben
p1019
sI1019
Vbet
p1020
sI1020
Vbi
p1021
sI1021
Vbics
p1022
sI1022
Vbig
p1023
sI1023
Vbings
p1024
sI1024
Vbirth
p1025
sI1025
Vbite
p1026
sI1026
Vbl
p1027
sI1027
Vbla
p1028
sI1028
Vblank
p1029
sI1029
Vbleak
p1030
sI1030
Vbleared
p1031
sI1031
Vbles
p1032
sI1032
Vblithe
p1033
sI1033
Vbloom
p1034
sI1034
Vblows
p1035
sI1035
Vblush
p1036
sI1036
Vbly
p1037
sI1037
Vbode
p1038
sI1038
Vbolt
p1039
sI1039
Vbolts
p1040
sI1040
Vbonds
p1041
sI1041
Vbones
p1042
sI1042
Vbooks
p1043
sI1043
Vboon
p1044
sI1044
Vboot
p1045
sI1045
Vbors
p1046
sI1046
Vbot
p1047
sI1047
Vboughs
p1048
sI1048
Vbow
p1049
sI1049
Vbrace
p1050
sI1050
Vbrag
p1051
sI1051
Vbrance
p1052
sI1052
Vbrand
p1053
sI1053
Vbraz
p1054
sI1054
Vbreeze
p1055
sI1055
Vbrim
p1056
sI1056
Vbrink
p1057
sI1057
Vbroi
p1058
sI1058
Vbrook
p1059
sI1059
Vbrooks
p1060
sI1060
Vbrought
p1061
sI1061
Vbrowed
p1062
sI1062
Vbrown
p1063
sI1063
Vbrute
p1064
sI1064
Vbu
p1065
sI1065
Vbuc
p1066
sI1066
Vbuck
p1067
sI1067
Vbuffed
p1068
sI1068
Vbuild
p1069
sI1069
Vbuilt
p1070
sI1070
Vbulk
p1071
sI1071
Vbun
p1072
sI1072
Vbur
p1073
sI1073
Vburned
p1074
sI1074
Vburns
p1075
sI1075
Vburnt
p1076
sI1076
Vburst
p1077
sI1077
Vbursts
p1078
sI1078
Vbyes
p1079
sI1079
Vbys
p1080
sI1080
Vcapped
p1081
sI1081
Vcar
p1082
sI1082
Vcare
p1083
sI1083
Vcarv
p1084
sI1084
Vcas
p1085
sI1085
Vcav
p1086
sI1086
Vcean
p1087
sI1087
Vceived
p1088
sI1088
Vcells
p1089
sI1089
Vcer
p1090
sI1090
Vchair
p1091
sI1091
Vcham
p1092
sI1092
Vchang
p1093
sI1093
Vcharged
p1094
sI1094
Vchas
p1095
sI1095
Vchaste
p1096
sI1096
Vchat
p1097
sI1097
Vche
p1098
sI1098
Vchee
p1099
sI1099
Vchieve
p1100
sI1100
Vchis
p1101
sI1101
Vchiv
p1102
sI1102
Vcho
p1103
sI1103
Vchor
p1104
sI1104
Vchryst
p1105
sI1105
Vchurch
p1106
sI1106
Vcied
p1107
sI1107
Vcies
p1108
sI1108
Vcim
p1109
sI1109
Vcir
p1110
sI1110
Vciv
p1111
sI1111
Vclad
p1112
sI1112
Vclasp
p1113
sI1113
Vclasped
p1114
sI1114
Vclasps
p1115
sI1115
Vclaws
p1116
sI1116
Vcleav
p1117
sI1117
Vcliff
p1118
sI1118
Vclimb
p1119
sI1119
Vclimbs
p1120
sI1120
Vclime
p1121
sI1121
Vclin
p1122
sI1122
Vclines
p1123
sI1123
Vclips
p1124
sI1124
Vclock
p1125
sI1125
Vclus
p1126
sI1126
Vco
p1127
sI1127
Vcoarse
p1128
sI1128
Vcocks
p1129
sI1129
Vcons
p1130
sI1130
Vcor
p1131
sI1131
Vcord
p1132
sI1132
Vcou
p1133
sI1133
Vcoun
p1134
sI1134
Vcove
p1135
sI1135
Vcover
p1136
sI1136
Vcrack
p1137
sI1137
Vcraft
p1138
sI1138
Vcraue
p1139
sI1139
Vcrawls
p1140
sI1140
Vcre
p1141
sI1141
Vcrea
p1142
sI1142
Vcred
p1143
sI1143
Vcree
p1144
sI1144
Vcrest
p1145
sI1145
Vcrim
p1146
sI1146
Vcrisp
p1147
sI1147
Vcrook
p1148
sI1148
Vcross
p1149
sI1149
Vcrossed
p1150
sI1150
Vcrushed
p1151
sI1151
Vcry
p1152
sI1152
Vcuck
p1153
sI1153
Vcul
p1154
sI1154
Vcun
p1155
sI1155
Vcup
p1156
sI1156
Vdac
p1157
sI1157
Vdaf
p1158
sI1158
Vdai
p1159
sI1159
Vdale
p1160
sI1160
Vdam
p1161
sI1161
Vdame
p1162
sI1162
Vdance
p1163
sI1163
Vdant
p1164
sI1164
Vdap
p1165
sI1165
Vdarn
p1166
sI1166
Vdarts
p1167
sI1167
Vdate
p1168
sI1168
Vdau
p1169
sI1169
Vdawn
p1170
sI1170
Vdeaf
p1171
sI1171
Vdee
p1172
sI1172
Vdeeds
p1173
sI1173
Vdeeps
p1174
sI1174
Vdeigned
p1175
sI1175
Vdels
p1176
sI1176
Vdens
p1177
sI1177
Vdents
p1178
sI1178
Vders
p1179
sI1179
Vdeur
p1180
sI1180
Vdic
p1181
sI1181
Vdies
p1182
sI1182
Vdil
p1183
sI1183
Vdimmed
p1184
sI1184
Vdive
p1185
sI1185
Vdiz
p1186
sI1186
Vdles
p1187
sI1187
Vdoes
p1188
sI1188
Vdoest
p1189
sI1189
Vdoff
p1190
sI1190
Vdong
p1191
sI1191
Vdoom
p1192
sI1192
Vdoors
p1193
sI1193
Vdotes
p1194
sI1194
Vdoubt
p1195
sI1195
Vdove
p1196
sI1196
Vdow
p1197
sI1197
Vdowne
p1198
sI1198
Vdrags
p1199
sI1199
Vdrenched
p1200
sI1200
Vdrew
p1201
sI1201
Vdring
p1202
sI1202
Vdriz
p1203
sI1203
Vdroop
p1204
sI1204
Vdrops
p1205
sI1205
Vdrowned
p1206
sI1206
Vdrum
p1207
sI1207
Vdu
p1208
sI1208
Vdumb
p1209
sI1209
Vdwelt
p1210
sI1210
Vdwin
p1211
sI1211
Vdy
p1212
sI1212
Veant
p1213
sI1213
Vearths
p1214
sI1214
Veas
p1215
sI1215
Veast
p1216
sI1216
Vec
p1217
sI1217
Vech
p1218
sI1218
Veer
p1219
sI1219
Veight
p1220
sI1220
Velf
p1221
sI1221
Velling
p1222
sI1222
Vemn
p1223
sI1223
Vends
p1224
sI1224
Vens
p1225
sI1225
Verns
p1226
sI1226
Vert
p1227
sI1227
Verts
p1228
sI1228
Vet
p1229
sI1229
Vets
p1230
sI1230
Vever
p1231
sI1231
Veves
p1232
sI1232
Vevn
p1233
sI1233
Vevs
p1234
sI1234
Vews
p1235
sI1235
Vfab
p1236
sI1236
Vfact
p1237
sI1237
Vfain
p1238
sI1238
Vfalse
p1239
sI1239
Vfash
p1240
sI1240
Vfate
p1241
sI1241
Vfe
p1242
sI1242
Vfeare
p1243
sI1243
Vfeat
p1244
sI1244
Vfeath
p1245
sI1245
Vfeele
p1246
sI1246
Vfel
p1247
sI1247
Vfells
p1248
sI1248
Vfelt
p1249
sI1249
Vfence
p1250
sI1250
Vfend
p1251
sI1251
Vfic
p1252
sI1252
Vfields
p1253
sI1253
Vfier
p1254
sI1254
Vfight
p1255
sI1255
Vfind
p1256
sI1256
Vfir
p1257
sI1257
Vfis
p1258
sI1258
Vfish
p1259
sI1259
Vflam
p1260
sI1260
Vflash
p1261
sI1261
Vflat
p1262
sI1262
Vflect
p1263
sI1263
Vfles
p1264
sI1264
Vfleur
p1265
sI1265
Vflight
p1266
sI1266
Vfling
p1267
sI1267
Vflock
p1268
sI1268
Vflour
p1269
sI1269
Vflowrs
p1270
sI1270
Vflung
p1271
sI1271
Vfo
p1272
sI1272
Vfoe
p1273
sI1273
Vfoil
p1274
sI1274
Vfolds
p1275
sI1275
Vfools
p1276
sI1276
Vfoul
p1277
sI1277
Vfox
p1278
sI1278
Vfrab
p1279
sI1279
Vfraile
p1280
sI1280
Vfreck
p1281
sI1281
Vfret
p1282
sI1282
Vfright
p1283
sI1283
Vfrost
p1284
sI1284
Vfrown
p1285
sI1285
Vfru
p1286
sI1286
Vfu
p1287
sI1287
Vfuse
p1288
sI1288
Vga
p1289
sI1289
Vgainst
p1290
sI1290
Vgale
p1291
sI1291
Vgall
p1292
sI1292
Vgap
p1293
sI1293
Vgard
p1294
sI1294
Vgash
p1295
sI1295
Vgayne
p1296
sI1296
Vgeous
p1297
sI1297
Vgey
p1298
sI1298
Vghast
p1299
sI1299
Vgift
p1300
sI1300
Vgifts
p1301
sI1301
Vgir
p1302
sI1302
Vgirls
p1303
sI1303
Vglade
p1304
sI1304
Vglass
p1305
sI1305
Vgled
p1306
sI1306
Vgles
p1307
sI1307
Vglid
p1308
sI1308
Vglim
p1309
sI1309
Vglo
p1310
sI1310
Vgloam
p1311
sI1311
Vglobe
p1312
sI1312
Vglor
p1313
sI1313
Vglove
p1314
sI1314
Vglow
p1315
sI1315
Vgor
p1316
sI1316
Vgot
p1317
sI1317
Vgown
p1318
sI1318
Vgrabe
p1319
sI1319
Vgrac
p1320
sI1320
Vgran
p1321
sI1321
Vgrasp
p1322
sI1322
Vgrate
p1323
sI1323
Vgraue
p1324
sI1324
Vgraves
p1325
sI1325
Vgrees
p1326
sI1326
Vgrief
p1327
sI1327
Vgrieues
p1328
sI1328
Vgrieve
p1329
sI1329
Vgroves
p1330
sI1330
Vgrown
p1331
sI1331
Vgrowst
p1332
sI1332
Vguish
p1333
sI1333
Vgulft
p1334
sI1334
Vguns
p1335
sI1335
Vgy
p1336
sI1336
Vha
p1337
sI1337
Vhadst
p1338
sI1338
Vhag
p1339
sI1339
Vham
p1340
sI1340
Vhamp
p1341
sI1341
Vhan
p1342
sI1342
Vhanged
p1343
sI1343
Vhark
p1344
sI1344
Vharsh
p1345
sI1345
Vhaue
p1346
sI1346
Vhaun
p1347
sI1347
Vhaunt
p1348
sI1348
Vhawk
p1349
sI1349
Vhay
p1350
sI1350
Vhaz
p1351
sI1351
Vhea
p1352
sI1352
Vhears
p1353
sI1353
Vhearse
p1354
sI1354
Vhearth
p1355
sI1355
Vheavn
p1356
sI1356
Vheel
p1357
sI1357
Vhel
p1358
sI1358
Vhell
p1359
sI1359
Vhelpe
p1360
sI1360
Vhence
p1361
sI1361
Vherbs
p1362
sI1362
Vherds
p1363
sI1363
Vhint
p1364
sI1364
Vhoarse
p1365
sI1365
Vhol
p1366
sI1366
Vholds
p1367
sI1367
Vhop
p1368
sI1368
Vhor
p1369
sI1369
Vhorse
p1370
sI1370
Vhou
p1371
sI1371
Vhowl
p1372
sI1372
Vhur
p1373
sI1373
Vhurl
p1374
sI1374
Vide
p1375
sI1375
Vier
p1376
sI1376
Vile
p1377
sI1377
Vinch
p1378
sI1378
Vioy
p1379
sI1379
Virs
p1380
sI1380
Vjaws
p1381
sI1381
Vject
p1382
sI1382
Vjew
p1383
sI1383
Vjour
p1384
sI1384
Vjous
p1385
sI1385
Vjoys
p1386
sI1386
Vkeen
p1387
sI1387
Vkew
p1388
sI1388
Vkill
p1389
sI1389
Vkle
p1390
sI1390
Vknees
p1391
sI1391
Vknell
p1392
sI1392
Vknights
p1393
sI1393
Vknock
p1394
sI1394
Vknocked
p1395
sI1395
Vknot
p1396
sI1396
Vknown
p1397
sI1397
Vku
p1398
sI1398
Vlab
p1399
sI1399
Vlack
p1400
sI1400
Vlair
p1401
sI1401
Vlamb
p1402
sI1402
Vlamp
p1403
sI1403
Vlamps
p1404
sI1404
Vlands
p1405
sI1405
Vlang
p1406
sI1406
Vlark
p1407
sI1407
Vlash
p1408
sI1408
Vlaugh
p1409
sI1409
Vlaughs
p1410
sI1410
Vlay
p1411
sI1411
Vlayes
p1412
sI1412
Vlead
p1413
sI1413
Vleaf
p1414
sI1414
Vlean
p1415
sI1415
Vleapt
p1416
sI1416
Vlearnd
p1417
sI1417
Vlease
p1418
sI1418
Vleast
p1419
sI1419
Vled
p1420
sI1420
Vleep
p1421
sI1421
Vlend
p1422
sI1422
Vlers
p1423
sI1423
Vles
p1424
sI1424
Vlest
p1425
sI1425
Vligh
p1426
sI1426
Vlil
p1427
sI1427
Vlimbs
p1428
sI1428
Vline
p1429
sI1429
Vlip
p1430
sI1430
Vliq
p1431
sI1431
Vlived
p1432
sI1432
Vlodge
p1433
sI1433
Vlodged
p1434
sI1434
Vloft
p1435
sI1435
Vloi
p1436
sI1436
Vloit
p1437
sI1437
Vlooh
p1438
sI1438
Vlooked
p1439
sI1439
Vlooks
p1440
sI1440
Vloom
p1441
sI1441
Vlooped
p1442
sI1442
Vloose
p1443
sI1443
Vlor
p1444
sI1444
Vlos
p1445
sI1445
Vlour
p1446
sI1446
Vlows
p1447
sI1447
Vlull
p1448
sI1448
Vlumph
p1449
sI1449
Vm
sI1450
Vmaids
p1450
sI1451
Vmain
p1451
sI1452
Vmaj
p1452
sI1453
Vmand
p1453
sI1454
Vmant
p1454
sI1455
Vmar
p1455
sI1456
Vmarch
p1456
sI1457
Vmark
p1457
sI1458
Vmask
p1458
sI1459
Vmass
p1459
sI1460
Vmat
p1460
sI1461
Vmate
p1461
sI1462
Vmea
p1462
sI1463
Vmead
p1463
sI1464
Vmeads
p1464
sI1465
Vmeek
p1465
sI1466
Vmeetes
p1466
sI1467
Vmens
p1467
sI1468
Vments
p1468
sI1469
Vmightst
p1469
sI1470
Vmild
p1470
sI1471
Vmilk
p1471
sI1472
Vmill
p1472
sI1473
Vminds
p1473
sI1474
Vmis
p1474
sI1475
Vmissed
p1475
sI1476
Vmite
p1476
sI1477
Vmits
p1477
sI1478
Vmixed
p1478
sI1479
Vmoan
p1479
sI1480
Vmocked
p1480
sI1481
Vmod
p1481
sI1482
Vmoil
p1482
sI1483
Vmoist
p1483
sI1484
Vmome
p1484
sI1485
Vmong
p1485
sI1486
Vmoods
p1486
sI1487
Vmoors
p1487
sI1488
Vmoth
p1488
sI1489
Vmoul
p1489
sI1490
Vmould
p1490
sI1491
Vmoulds
p1491
sI1492
Vmount
p1492
sI1493
Vmult
p1493
sI1494
Vmyre
p1494
sI1495
Vnace
p1495
sI1496
Vnai
p1496
sI1497
Vnall
p1497
sI1498
Vne
p1498
sI1499
Vnec
p1499
sI1500
Vneck
p1500
sI1501
Vneed
p1501
sI1502
Vner
p1502
sI1503
Vneth
p1503
sI1504
Vney
p1504
sI1505
Vnice
p1505
sI1506
Vnied
p1506
sI1507
Vnigh
p1507
sI1508
Vnings
p1508
sI1509
Vnit
p1509
sI1510
Vnoes
p1510
sI1511
Vnoise
p1511
sI1512
Vnook
p1512
sI1513
Vnorth
p1513
sI1514
Vnough
p1514
sI1515
Vnour
p1515
sI1516
Vnuns
p1516
sI1517
Vnut
p1517
sI1518
Vnymphs
p1518
sI1519
Voak
p1519
sI1520
Vob
p1520
sI1521
Voc
p1521
sI1522
Voft
p1522
sI1523
Voil
p1523
sI1524
Vol
p1524
sI1525
Vond
p1525
sI1526
Voo
p1526
sI1527
Vooz
p1527
sI1528
Vooze
p1528
sI1529
Vors
p1529
sI1530
Vou
p1530
sI1531
Vowl
p1531
sI1532
Vowst
p1532
sI1533
Vox
p1533
sI1534
Voz
p1534
sI1535
Vpac
p1535
sI1536
Vpag
p1536
sI1537
Vpain
p1537
sI1538
Vpaint
p1538
sI1539
Vpall
p1539
sI1540
Vpane
p1540
sI1541
Vpants
p1541
sI1542
Vpare
p1542
sI1543
Vpassd
p1543
sI1544
Vpasse
p1544
sI1545
Vpaused
p1545
sI1546
Vpave
p1546
sI1547
Vpay
p1547
sI1548
Vpays
p1548
sI1549
Vpeace
p1549
sI1550
Vpeak
p1550
sI1551
Vpear
p1551
sI1552
Vpearls
p1552
sI1553
Vpeck
p1553
sI1554
Vped
p1554
sI1555
Vpeo
p1555
sI1556
Vpest
p1556
sI1557
Vpests
p1557
sI1558
Vpet
p1558
sI1559
Vpha
p1559
sI1560
Vphes
p1560
sI1561
Vphin
p1561
sI1562
Vphire
p1562
sI1563
Vpho
p1563
sI1564
Vphrous
p1564
sI1565
Vpic
p1565
sI1566
Vpid
p1566
sI1567
Vpie
p1567
sI1568
Vpier
p1568
sI1569
Vpiled
p1569
sI1570
Vpined
p1570
sI1571
Vplac
p1571
sI1572
Vplan
p1572
sI1573
Vplant
p1573
sI1574
Vpleased
p1574
sI1575
Vpled
p1575
sI1576
Vples
p1576
sI1577
Vplex
p1577
sI1578
Vplies
p1578
sI1579
Vpling
p1579
sI1580
Vplo
p1580
sI1581
Vplod
p1581
sI1582
Vplough
p1582
sI1583
Vplume
p1583
sI1584
Vplun
p1584
sI1585
Vpon
p1585
sI1586
Vpoor
p1586
sI1587
Vpor
p1587
sI1588
Vport
p1588
sI1589
Vpost
p1589
sI1590
Vpourd
p1590
sI1591
Vpraise
p1591
sI1592
Vpray
p1592
sI1593
Vprayers
p1593
sI1594
Vpressd
p1594
sI1595
Vpriest
p1595
sI1596
Vprime
p1596
sI1597
Vprin
p1597
sI1598
Vprop
p1598
sI1599
Vproud
p1599
sI1600
Vprove
p1600
sI1601
Vprow
p1601
sI1602
Vpull
p1602
sI1603
Vpup
p1603
sI1604
Vpurl
p1604
sI1605
Vpush
p1605
sI1606
Vput
p1606
sI1607
Vqua
p1607
sI1608
Vqual
p1608
sI1609
Vqui
p1609
sI1610
Vquit
p1610
sI1611
Vrack
p1611
sI1612
Vracts
p1612
sI1613
Vraf
p1613
sI1614
Vrai
p1614
sI1615
Vrain
p1615
sI1616
Vraisd
p1616
sI1617
Vran
p1617
sI1618
Vrang
p1618
sI1619
Vrant
p1619
sI1620
Vrare
p1620
sI1621
Vrat
p1621
sI1622
Vrath
p1622
sI1623
Vraths
p1623
sI1624
Vrav
p1624
sI1625
Vraves
p1625
sI1626
Vread
p1626
sI1627
Vreads
p1627
sI1628
Vreck
p1628
sI1629
Vreeds
p1629
sI1630
Vrein
p1630
sI1631
Vrel
p1631
sI1632
Vrev
p1632
sI1633
Vric
p1633
sI1634
Vridge
p1634
sI1635
Vriers
p1635
sI1636
Vries
p1636
sI1637
Vrill
p1637
sI1638
Vrills
p1638
sI1639
Vringed
p1639
sI1640
Vris
p1640
sI1641
Vroads
p1641
sI1642
Vroared
p1642
sI1643
Vrobe
p1643
sI1644
Vrobs
p1644
sI1645
Vrock
p1645
sI1646
Vrocked
p1646
sI1647
Vrod
p1647
sI1648
Vrol
p1648
sI1649
Vroll
p1649
sI1650
Vrolled
p1650
sI1651
Vrolls
p1651
sI1652
Vroofs
p1652
sI1653
Vrook
p1653
sI1654
Vroots
p1654
sI1655
Vrough
p1655
sI1656
Vrous
p1656
sI1657
Vrowed
p1657
sI1658
Vrs
p1658
sI1659
Vru
p1659
sI1660
Vrung
p1660
sI1661
Vruns
p1661
sI1662
Vsag
p1662
sI1663
Vsails
p1663
sI1664
Vsak
p1664
sI1665
Vsake
p1665
sI1666
Vsal
p1666
sI1667
Vsalt
p1667
sI1668
Vsame
p1668
sI1669
Vsans
p1669
sI1670
Vsap
p1670
sI1671
Vsat
p1671
sI1672
Vsav
p1672
sI1673
Vsays
p1673
sI1674
Vscared
p1674
sI1675
Vscends
p1675
sI1676
Vscope
p1676
sI1677
Vscorn
p1677
sI1678
Vscours
p1678
sI1679
Vscratch
p1679
sI1680
Vscreen
p1680
sI1681
Vscries
p1681
sI1682
Vsculp
p1682
sI1683
Vseal
p1683
sI1684
Vseals
p1684
sI1685
Vseared
p1685
sI1686
Vseas
p1686
sI1687
Vseed
p1687
sI1688
Vseem
p1688
sI1689
Vsees
p1689
sI1690
Vseest
p1690
sI1691
Vseeth
p1691
sI1692
Vseize
p1692
sI1693
Vsel
p1693
sI1694
Vselfe
p1694
sI1695
Vsent
p1695
sI1696
Vserve
p1696
sI1697
Vses
p1697
sI1698
Vsess
p1698
sI1699
Vsessed
p1699
sI1700
Vsev
p1700
sI1701
Vsha
p1701
sI1702
Vshades
p1702
sI1703
Vshaft
p1703
sI1704
Vshak
p1704
sI1705
Vshakes
p1705
sI1706
Vshamed
p1706
sI1707
Vshapes
p1707
sI1708
Vshares
p1708
sI1709
Vshat
p1709
sI1710
Vsheer
p1710
sI1711
Vshep
p1711
sI1712
Vshes
p1712
sI1713
Vshi
p1713
sI1714
Vshin
p1714
sI1715
Vshines
p1715
sI1716
Vshod
p1716
sI1717
Vshook
p1717
sI1718
Vshot
p1718
sI1719
Vshoud
p1719
sI1720
Vshoul
p1720
sI1721
Vshout
p1721
sI1722
Vshow
p1722
sI1723
Vshroud
p1723
sI1724
Vshrunk
p1724
sI1725
Vshun
p1725
sI1726
Vshuns
p1726
sI1727
Vshut
p1727
sI1728
Vshuts
p1728
sI1729
Vsides
p1729
sI1730
Vsigh
p1730
sI1731
Vsighed
p1731
sI1732
Vsight
p1732
sI1733
Vsights
p1733
sI1734
Vsilk
p1734
sI1735
Vsim
p1735
sI1736
Vsinge
p1736
sI1737
Vsings
p1737
sI1738
Vsions
p1738
sI1739
Vsired
p1739
sI1740
Vsive
p1740
sI1741
Vskates
p1741
sI1742
Vskin
p1742
sI1743
Vslack
p1743
sI1744
Vslant
p1744
sI1745
Vsleeps
p1745
sI1746
Vslew
p1746
sI1747
Vslim
p1747
sI1748
Vslip
p1748
sI1749
Vslush
p1749
sI1750
Vsmall
p1750
sI1751
Vsmalle
p1751
sI1752
Vsmeared
p1752
sI1753
Vsmiles
p1753
sI1754
Vsmoke
p1754
sI1755
Vsmudge
p1755
sI1756
Vsnake
p1756
sI1757
Vsnatch
p1757
sI1758
Vsneer
p1758
sI1759
Vsnort
p1759
sI1760
Vsoar
p1760
sI1761
Vsoil
p1761
sI1762
Vsol
p1762
sI1763
Vsolve
p1763
sI1764
Vsoned
p1764
sI1765
Vsorb
p1765
sI1766
Vsore
p1766
sI1767
Vsoule
p1767
sI1768
Vsounds
p1768
sI1769
Vsource
p1769
sI1770
Vsouth
p1770
sI1771
Vspeak
p1771
sI1772
Vspears
p1772
sI1773
Vspher
p1773
sI1774
Vspheres
p1774
sI1775
Vspi
p1775
sI1776
Vspied
p1776
sI1777
Vspikes
p1777
sI1778
Vspill
p1778
sI1779
Vspis
p1779
sI1780
Vsplit
p1780
sI1781
Vspong
p1781
sI1782
Vspout
p1782
sI1783
Vsprang
p1783
sI1784
Vsprung
p1784
sI1785
Vspun
p1785
sI1786
Vsta
p1786
sI1787
Vstair
p1787
sI1788
Vstake
p1788
sI1789
Vstalks
p1789
sI1790
Vstamped
p1790
sI1791
Vstan
p1791
sI1792
Vstands
p1792
sI1793
Vstarved
p1793
sI1794
Vstay
p1794
sI1795
Vsteals
p1795
sI1796
Vstee
p1796
sI1797
Vsteed
p1797
sI1798
Vsteep
p1798
sI1799
Vsticke
p1799
sI1800
Vstirred
p1800
sI1801
Vsto
p1801
sI1802
Vstone
p1802
sI1803
Vstones
p1803
sI1804
Vstorms
p1804
sI1805
Vstreamed
p1805
sI1806
Vstretch
p1806
sI1807
Vstrick
p1807
sI1808
Vstrid
p1808
sI1809
Vstrife
p1809
sI1810
Vstrike
p1810
sI1811
Vstrings
p1811
sI1812
Vstrong
p1812
sI1813
Vstrous
p1813
sI1814
Vstrove
p1814
sI1815
Vstruc
p1815
sI1816
Vstu
p1816
sI1817
Vstuff
p1817
sI1818
Vstut
p1818
sI1819
Vsub
p1819
sI1820
Vsuf
p1820
sI1821
Vsul
p1821
sI1822
Vsume
p1822
sI1823
Vsumed
p1823
sI1824
Vsunk
p1824
sI1825
Vsup
p1825
sI1826
Vsured
p1826
sI1827
Vsures
p1827
sI1828
Vsurg
p1828
sI1829
Vsurge
p1829
sI1830
Vsurped
p1830
sI1831
Vswale
p1831
sI1832
Vsweeps
p1832
sI1833
Vswer
p1833
sI1834
Vswing
p1834
sI1835
Vswoon
p1835
sI1836
Vswords
p1836
sI1837
Vtack
p1837
sI1838
Vtail
p1838
sI1839
Vtained
p1839
sI1840
Vtains
p1840
sI1841
Vtant
p1841
sI1842
Vtap
p1842
sI1843
Vtar
p1843
sI1844
Vtask
p1844
sI1845
Vtasks
p1845
sI1846
Vte
p1846
sI1847
Vtear
p1847
sI1848
Vtem
p1848
sI1849
Vtend
p1849
sI1850
Vterd
p1850
sI1851
Vtered
p1851
sI1852
Vthats
p1852
sI1853
Vthawed
p1853
sI1854
Vthence
p1854
sI1855
Vtherd
p1855
sI1856
Vthick
p1856
sI1857
Vthorn
p1857
sI1858
Vthow
p1858
sI1859
Vthree
p1859
sI1860
Vthrew
p1860
sI1861
Vthrice
p1861
sI1862
Vthroat
p1862
sI1863
Vthrob
p1863
sI1864
Vthrow
p1864
sI1865
Vthrown
p1865
sI1866
Vthru
p1866
sI1867
Vthrush
p1867
sI1868
Vthwart
p1868
sI1869
Vti
p1869
sI1870
Vtial
p1870
sI1871
Vtic
p1871
sI1872
Vtie
p1872
sI1873
Vtience
p1873
sI1874
Vtile
p1874
sI1875
Vtique
p1875
sI1876
Vtire
p1876
sI1877
Vtly
p1877
sI1878
Vtoil
p1878
sI1879
Vtomb
p1879
sI1880
Vtoms
p1880
sI1881
Vtors
p1881
sI1882
Vtouch
p1882
sI1883
Vtowers
p1883
sI1884
Vtoyle
p1884
sI1885
Vtracks
p1885
sI1886
Vtrade
p1886
sI1887
Vtral
p1887
sI1888
Vtram
p1888
sI1889
Vtremes
p1889
sI1890
Vtress
p1890
sI1891
Vtrest
p1891
sI1892
Vtrib
p1892
sI1893
Vtrimmed
p1893
sI1894
Vtrips
p1894
sI1895
Vtro
p1895
sI1896
Vtrols
p1896
sI1897
Vtroth
p1897
sI1898
Vtrum
p1898
sI1899
Vtrust
p1899
sI1900
Vtter
p1900
sI1901
Vtu
p1901
sI1902
Vtue
p1902
sI1903
Vtul
p1903
sI1904
Vtur
p1904
sI1905
Vturbed
p1905
sI1906
Vturned
p1906
sI1907
Vtwelve
p1907
sI1908
Vtwice
p1908
sI1909
Vtwist
p1909
sI1910
Vtwould
p1910
sI1911
Vtyl
p1911
sI1912
Vuage
p1912
sI1913
Vuf
p1913
sI1914
Vui
p1914
sI1915
Vuid
p1915
sI1916
Vult
p1916
sI1917
Vumn
p1917
sI1918
Vumph
p1918
sI1919
Vurs
p1919
sI1920
Vut
p1920
sI1921
Vute
p1921
sI1922
Vv
sI1923
Vvan
p1922
sI1924
Vvast
p1923
sI1925
Vvault
p1924
sI1926
Vvaunt
p1925
sI1927
Vveil
p1926
sI1928
Vveiled
p1927
sI1929
Vveins
p1928
sI1930
Vvents
p1929
sI1931
Vvests
p1930
sI1932
Vvide
p1931
sI1933
Vvil
p1932
sI1934
Vvines
p1933
sI1935
Vvn
p1934
sI1936
Vvoic
p1935
sI1937
Vvoked
p1936
sI1938
Vvor
p1937
sI1939
Vvorce
p1938
sI1940
Vvy
p1939
sI1941
Vwaits
p1940
sI1942
Vwake
p1941
sI1943
Vwalls
p1942
sI1944
Vwand
p1943
sI1945
Vwarm
p1944
sI1946
Vwarmd
p1945
sI1947
Vwarmed
p1946
sI1948
Vwarn
p1947
sI1949
Vwarp
p1948
sI1950
Vwast
p1949
sI1951
Vwastes
p1950
sI1952
Vwatched
p1951
sI1953
Vwaue
p1952
sI1954
Vweak
p1953
sI1955
Vwealth
p1954
sI1956
Vweaned
p1955
sI1957
Vweav
p1956
sI1958
Vweb
p1957
sI1959
Vweep
p1958
sI1960
Vweeps
p1959
sI1961
Vwept
p1960
sI1962
Vwer
p1961
sI1963
Vwet
p1962
sI1964
Vwharf
p1963
sI1965
Vwhats
p1964
sI1966
Vwheel
p1965
sI1967
Vwhence
p1966
sI1968
Vwhif
p1967
sI1969
Vwhip
p1968
sI1970
Vwhit
p1969
sI1971
Vwid
p1970
sI1972
Vwim
p1971
sI1973
Vwines
p1972
sI1974
Vwink
p1973
sI1975
Vwitch
p1974
sI1976
Vwoke
p1975
sI1977
Vwoods
p1976
sI1978
Vwor
p1977
sI1979
Vworks
p1978
sI1980
Vworlds
p1979
sI1981
Vworm
p1980
sI1982
Vworms
p1981
sI1983
Vwound
p1982
sI1984
Vwounds
p1983
sI1985
Vwove
p1984
sI1986
Vwreck
p1985
sI1987
Vwrit
p1986
sI1988
Vwyll
p1987
sI1989
Vwynde
p1988
sI1990
Vxome
p1989
sI1991
Vye
p1990
sI1992
Vyells
p1991
sI1993
Vyf
p1992
sI1994
Vyn
p1993
sI1995
Vyore
p1994
sI1996
Vyoull
p1995
sI1997
Vyr
p1996
sI1998
Vzeph
p1997
sI1999
Vzling
p1998
sI2000
Vzone
p1999
sI2001
Vzy
p2000
ss.