(dp1
S'id_to_char'
p2
(dp3
I0
Ve
sI1
Vt
sI2
Va
sI3
Vo
sI4
Vn
sI5
Vh
sI6
Vs
sI7
Vi
sI8
Vr
sI9
Vl
sI10
Vd
sI11
Vw
sI12
Vu
sI13
Vm
sI14
Vg
sI15
Vf
sI16
Vc
sI17
Vy
sI18
Vb
sI19
Vp
sI20
Vv
sI21
Vk
sI22
V'
sI23
Vz
sI24
Vj
sI25
Vx
sI26
Vq
ssS'id_to_tag'
p4
(dp5
I0
V+
sI1
V-
ssS'id_to_word'
p6
(dp7
I0
S'<UNK>'
p8
sI1
Vthe
p9
sI2
Vand
p10
sI3
Va
sI4
Vin
p11
sI5
Vof
p12
sI6
Ving
p13
sI7
Vto
p14
sI8
Vi
sI9
Vthat
p15
sI10
Vwith
p16
sI11
Vbe
p17
sI12
Vmy
p18
sI13
Vme
p19
sI14
Ver
p20
sI15
Von
p21
sI16
Vfor
p22
sI17
Vas
p23
sI18
Vly
p24
sI19
Vit
p25
sI20
Vhis
p26
sI21
Vis
p27
sI22
Vnot
p28
sI23
Vlove
p29
sI24
Vo
sI25
Vor
p30
sI26
Vfrom
p31
sI27
Vno
p32
sI28
Vbut
p33
sI29
Vwhen
p34
sI30
Vall
p35
sI31
Ved
p36
sI32
Ven
p37
sI33
Vso
p38
sI34
Vhe
p39
sI35
Vone
p40
sI36
Vre
p41
sI37
Vter
p42
sI38
Vy
sI39
Vat
p43
sI40
Vhave
p44
sI41
Vnight
p45
sI42
Vthou
p46
sI43
Vwas
p47
sI44
Vwhat
p48
sI45
Vwhere
p49
sI46
Ve
sI47
Vher
p50
sI48
Vlike
p51
sI49
Vnow
p52
sI50
Vthen
p53
sI51
Vver
p54
sI52
Vby
p55
sI53
Vthy
p56
sI54
Vde
p57
sI55
Vhim
p58
sI56
Vhow
p59
sI57
Vlong
p60
sI58
Vun
p61
sI59
Van
p62
sI60
Vless
p63
sI61
Vest
p64
sI62
Vman
p65
sI63
Vup
p66
sI64
Vyou
p67
sI65
Vcan
p68
sI66
Vwhich
p69
sI67
Vare
p70
sI68
Vcome
p71
sI69
Vthere
p72
sI70
Vwe
p73
sI71
Vout
p74
sI72
Vtheir
p75
sI73
Vthey
p76
sI74
Vder
p77
sI75
Veyes
p78
sI76
Vshe
p79
sI77
Vyet
p80
sI78
Vwho
p81
sI79
Vlight
p82
sI80
Vour
p83
sI81
Vdo
p84
sI82
Vfar
p85
sI83
Vif
p86
sI84
Vlow
p87
sI85
Vthis
p88
sI86
Vwere
p89
sI87
Vsweet
p90
sI88
Vthee
p91
sI89
Vthem
p92
sI90
Vday
p93
sI91
Vdeath
p94
sI92
Vfi
p95
sI93
Vround
p96
sI94
Vshall
p97
sI95
Vber
p98
sI96
Vcold
p99
sI97
Vcon
p100
sI98
Ves
p101
sI99
Vsee
p102
sI100
Vsleep
p103
sI101
Vtle
p104
sI102
Vty
p105
sI103
Vway
p106
sI104
Vwill
p107
sI105
Vers
p108
sI106
Vla
p109
sI107
Vlet
p110
sI108
Vmay
p111
sI109
Vnor
p112
sI110
Vsea
p113
sI111
Val
p114
sI112
Vble
p115
sI113
Vden
p116
sI114
Vits
p117
sI115
Vna
p118
sI116
Vness
p119
sI117
Vsome
p120
sI118
Vsun
p121
sI119
Vthrough
p122
sI120
Vtion
p123
sI121
Vcould
p124
sI122
Vdid
p125
sI123
Vdoth
p126
sI124
Vhere
p127
sI125
Vlife
p128
sI126
Vmore
p129
sI127
Vper
p130
sI128
Vtain
p131
sI129
Vtime
p132
sI130
Vus
p133
sI131
Vwould
p134
sI132
Vblack
p135
sI133
Vex
p136
sI134
Vfall
p137
sI135
Vhand
p138
sI136
Vheart
p139
sI137
Vself
p140
sI138
Vside
p141
sI139
Vtoo
p142
sI140
Vwin
p143
sI141
Vev
p144
sI142
Vfair
p145
sI143
Vgain
p146
sI144
Vgod
p147
sI145
Vhigh
p148
sI146
Vmor
p149
sI147
Vous
p150
sI148
Vplace
p151
sI149
Vry
p152
sI150
Vsuch
p153
sI151
Vtell
p154
sI152
Vther
p155
sI153
Vthese
p156
sI154
Vthough
p157
sI155
Vthought
p158
sI156
Vair
p159
sI157
Vam
p160
sI158
Vart
p161
sI159
Vbeau
p162
sI160
Vbright
p163
sI161
Vdeep
p164
sI162
Vdown
p165
sI163
Vdream
p166
sI164
Vearth
p167
sI165
Vface
p168
sI166
Vfree
p169
sI167
Vhead
p170
sI168
Vlit
p171
sI169
Vlone
p172
sI170
Vmake
p173
sI171
Vmust
p174
sI172
Vro
p175
sI173
Vshould
p176
sI174
Vslow
p177
sI175
Vsound
p178
sI176
Vthose
p179
sI177
Vback
p180
sI178
Vblue
p181
sI179
Vbout
p182
sI180
Vdark
p183
sI181
Veach
p184
sI182
Vel
p185
sI183
Vend
p186
sI184
Vfear
p187
sI185
Vfore
p188
sI186
Vful
p189
sI187
Vget
p190
sI188
Vgo
p191
sI189
Vhalf
p192
sI190
Vhath
p193
sI191
Vheav
p194
sI192
Vli
p195
sI193
Vlov
p196
sI194
Vmade
p197
sI195
Vmine
p198
sI196
Vmo
p199
sI197
Vnone
p200
sI198
Vonce
p201
sI199
Vpale
p202
sI200
Vpart
p203
sI201
Vrest
p204
sI202
Vsay
p205
sI203
Vsi
p206
sI204
Vsnow
p207
sI205
Vstill
p208
sI206
Vthing
p209
sI207
Vtill
p210
sI208
Vtwo
p211
sI209
Vwell
p212
sI210
Vyour
p213
sI211
Vac
p214
sI212
Vbed
p215
sI213
Vbove
p216
sI214
Vdi
p217
sI215
Vdie
p218
sI216
Vdis
p219
sI217
Vdreams
p220
sI218
Vfeel
p221
sI219
Vger
p222
sI220
Vgood
p223
sI221
Vgrace
p224
sI222
Vgreen
p225
sI223
Vhad
p226
sI224
Vheard
p227
sI225
Vish
p228
sI226
Vlast
p229
sI227
Vlie
p230
sI228
Vmem
p231
sI229
Vmer
p232
sI230
Vneath
p233
sI231
Vnev
p234
sI232
Vning
p235
sI233
Voh
p236
sI234
Voth
p237
sI235
Vown
p238
sI236
Vpas
p239
sI237
Vpass
p240
sI238
Vseen
p241
sI239
Vsion
p242
sI240
Vson
p243
sI241
Vthan
p244
sI242
Vture
p245
sI243
Vturn
p246
sI244
Vu
sI245
Vure
p247
sI246
Vven
p248
sI247
Vvi
p249
sI248
Vwent
p250
sI249
Vwild
p251
sI250
Vwood
p252
sI251
Var
p253
sI252
Varms
p254
sI253
Vbat
p255
sI254
Vbrain
p256
sI255
Vbreak
p257
sI256
Vcall
p258
sI257
Vcept
p259
sI258
Vclose
p260
sI259
Vcomes
p261
sI260
Vcret
p262
sI261
Vcur
p263
sI262
Vcut
p264
sI263
Vdead
p265
sI264
Vdle
p266
sI265
Vdome
p267
sI266
Vdone
p268
sI267
Vered
p269
sI268
Veth
p270
sI269
Veve
p271
sI270
Vfan
p272
sI271
Vfast
p273
sI272
Vflows
p274
sI273
Vfoot
p275
sI274
Vfresh
p276
sI275
Vgar
p277
sI276
Vgive
p278
sI277
Vhas
p279
sI278
Vho
p280
sI279
Vhuge
p281
sI280
Vim
p282
sI281
Vking
p283
sI282
Vland
p284
sI283
Vlines
p285
sI284
Vlive
p286
sI285
Vlove's
p287
sI286
Vma
p288
sI287
Vmost
p289
sI288
Vmuch
p290
sI289
Vni
p291
sI290
Vnoth
p292
sI291
Voff
p293
sI292
Vold
p294
sI293
Vpleas
p295
sI294
Vpos
p296
sI295
Vrow
p297
sI296
Vsaid
p298
sI297
Vse
p299
sI298
Vsing
p300
sI299
Vsong
p301
sI300
Vspread
p302
sI301
Vsprings
p303
sI302
Vstate
p304
sI303
Vsum
p305
sI304
Vtake
p306
sI305
Vtal
p307
sI306
Vters
p308
sI307
Vthus
p309
sI308
Vtrue
p310
sI309
Vverse
p311
sI310
Vvoice
p312
sI311
Vwa
p313
sI312
Vwan
p314
sI313
Vwest
p315
sI314
Vwhose
p316
sI315
Vwo
p317
sI316
Vwon
p318
sI317
Vworld
p319
sI318
V'twas
p320
sI319
Vad
p321
sI320
Vah
p322
sI321
Vap
p323
sI322
Vbeen
p324
sI323
Vbird
p325
sI324
Vbirds
p326
sI325
Vblow
p327
sI326
Vbor
p328
sI327
Vbound
p329
sI328
Vbours
p330
sI329
Vbrave
p331
sI330
Vburn
p332
sI331
Vcast
p333
sI332
Vcheeks
p334
sI333
Vchild
p335
sI334
Vcloud
p336
sI335
Vcom
p337
sI336
Vcries
p338
sI337
Vdare
p339
sI338
Vdiv
p340
sI339
Vdog
p341
sI340
Vdrop
p342
sI341
Vear
p343
sI342
Vease
p344
sI343
Vei
p345
sI344
Vem
p346
sI345
Vfac
p347
sI346
Vfail
p348
sI347
Vfalls
p349
sI348
Vflow
p350
sI349
Vfour
p351
sI350
Vfur
p352
sI351
Vgazed
p353
sI352
Vgen
p354
sI353
Vges
p355
sI354
Vgold
p356
sI355
Vgone
p357
sI356
Vgray
p358
sI357
Vgreat
p359
sI358
Vhands
p360
sI359
Vhap
p361
sI360
Vhearts
p362
sI361
Vheat
p363
sI362
Vice
p364
sI363
Vjoy
p365
sI364
Vjust
p366
sI365
Vkneel
p367
sI366
Vknow
p368
sI367
Vleap
p369
sI368
Vleave
p370
sI369
Vleft
p371
sI370
Vlets
p372
sI371
Vlies
p373
sI372
Vlights
p374
sI373
Vloud
p375
sI374
Vmakes
p376
sI375
Vman's
p377
sI376
Vmas
p378
sI377
Vmazed
p379
sI378
Vmet
p380
sI379
Vmi
p381
sI380
Vmight
p382
sI381
Vmil
p383
sI382
Vmur
p384
sI383
Vnal
p385
sI384
Vnear
p386
sI385
Vnew
p387
sI386
Vnext
p388
sI387
Vny
p389
sI388
Vpair
p390
sI389
Vpen
p391
sI390
Vplain
p392
sI391
Vple
p393
sI392
Vquick
p394
sI393
Vra
p395
sI394
Vri
p396
sI395
Vrid
p397
sI396
Vriv
p398
sI397
Vrose
p399
sI398
Vrun
p400
sI399
Vsad
p401
sI400
Vsaw
p402
sI401
Vseemed
p403
sI402
Vshore
p404
sI403
Vshort
p405
sI404
Vsin
p406
sI405
Vskies
p407
sI406
Vsoft
p408
sI407
Vstand
p409
sI408
Vstar
p410
sI409
Vstrange
p411
sI410
Vstream
p412
sI411
Vsure
p413
sI412
Vswift
p414
sI413
Vthings
p415
sI414
Vthinks
p416
sI415
Vthun
p417
sI416
Vties
p418
sI417
Vtimes
p419
sI418
Vting
p420
sI419
Vtrav
p421
sI420
Vtrod
p422
sI421
Vtry
p423
sI422
Vture's
p424
sI423
Vur
p425
sI424
Vview
p426
sI425
Vwait
p427
sI426
Vwards
p428
sI427
Vware
p429
sI428
Vways
p430
sI429
Vwhom
p431
sI430
Vwilt
p432
sI431
Vwind
p433
sI432
Vwoe
p434
sI433
Vword
p435
sI434
Vwork
p436
sI435
Vyear's
p437
sI436
Vab
p438
sI437
Vact
p439
sI438
Vaf
p440
sI439
Vage
p441
sI440
Varch
p442
sI441
Vbark
p443
sI442
Vbells
p444
sI443
Vbered
p445
sI444
Vbers
p446
sI445
Vbest
p447
sI446
Vbide
p448
sI447
Vbled
p449
sI448
Vblind
p450
sI449
Vblood
p451
sI450
Vbo
p452
sI451
Vboth
p453
sI452
Vbra
p454
sI453
Vbring
p455
sI454
Vbrings
p456
sI455
Vbrows
p457
sI456
Vcal
p458
sI457
Vcame
p459
sI458
Vcause
p460
sI459
Vcaves
p461
sI460
Vcay
p462
sI461
Vcell
p463
sI462
Vchance
p464
sI463
Vcient
p465
sI464
Vcle
p466
sI465
Vclos
p467
sI466
Vclothes
p468
sI467
Vcloths
p469
sI468
Vclouds
p470
sI469
Vcount
p471
sI470
Vcourse
p472
sI471
Vcrag
p473
sI472
Vdear
p474
sI473
Vdered
p475
sI474
Vdes
p476
sI475
Vdif
p477
sI476
Vdim
p478
sI477
Vdise
p479
sI478
Vdoor
p480
sI479
Vdrous
p481
sI480
Vere
p482
sI481
Vests
p483
sI482
Veye
p484
sI483
Vfee
p485
sI484
Vfeet
p486
sI485
Vfell
p487
sI486
Vfer
p488
sI487
Vfew
p489
sI488
Vfirst
p490
sI489
Vflood
p491
sI490
Vforth
p492
sI491
Vfound
p493
sI492
Vfrag
p494
sI493
Vframe
p495
sI494
Vfull
p496
sI495
Vghost
p497
sI496
Vgiv
p498
sI497
Vgives
p499
sI498
Vglit
p500
sI499
Vgoes
p501
sI500
Vgrass
p502
sI501
Vgrot
p503
sI502
Vgrow
p504
sI503
Vhar
p505
sI504
Vhast
p506
sI505
Vhear
p507
sI506
Vheight
p508
sI507
Vhid
p509
sI508
Vhide
p510
sI509
Vhill
p511
sI510
Vhind
p512
sI511
Vhold
p513
sI512
Vhome
p514
sI513
Vhon
p515
sI514
Vhood
p516
sI515
Vhu
p517
sI516
Vhung
p518
sI517
Vid
p519
sI518
Vie
p520
sI519
Vion
p521
sI520
Vished
p522
sI521
Vju
p523
sI522
Vken
p524
sI523
Vkings
p525
sI524
Vkiss
p526
sI525
Vknew
p527
sI526
Vknight
p528
sI527
Vlain
p529
sI528
Vlat
p530
sI529
Vlent
p531
sI530
Vlips
p532
sI531
Vlist
p533
sI532
Vlives
p534
sI533
Vlo
p535
sI534
Vlook
p536
sI535
Vlose
p537
sI536
Vmen
p538
sI537
Vmer's
p539
sI538
Vmid
p540
sI539
Vmind
p541
sI540
Vmoon
p542
sI541
Vmoone
p543
sI542
Vmourn
p544
sI543
Vmove
p545
sI544
Vmu
p546
sI545
Vname
p547
sI546
Vneigh
p548
sI547
Vnum
p549
sI548
Vpa
p550
sI549
Vpal
p551
sI550
Vpar
p552
sI551
Vpast
p553
sI552
Vpause
p554
sI553
Vphoeb
p555
sI554
Vpi
p556
sI555
Vplayed
p557
sI556
Vpris
p558
sI557
Vque
p559
sI558
Vrap
p560
sI559
Vred
p561
sI560
Vres
p562
sI561
Vring
p563
sI562
Vrise
p564
sI563
Vrocks
p565
sI564
Vsands
p566
sI565
Vsec
p567
sI566
Vseek
p568
sI567
Vshad
p569
sI568
Vshake
p570
sI569
Vsharp
p571
sI570
Vshine
p572
sI571
Vship
p573
sI572
Vsic
p574
sI573
Vsilks
p575
sI574
Vsince
p576
sI575
Vsit
p577
sI576
Vsky
p578
sI577
Vslum
p579
sI578
Vsmooth
p580
sI579
Vsoon
p581
sI580
Vsought
p582
sI581
Vspent
p583
sI582
Vspir
p584
sI583
Vspon
p585
sI584
Vstant
p586
sI585
Vstars
p587
sI586
Vsteps
p588
sI587
Vstreet
p589
sI588
Vsud
p590
sI589
Vsus
p591
sI590
Vsy
p592
sI591
Vsym
p593
sI592
Vtak
p594
sI593
Vted
p595
sI594
Vten
p596
sI595
Vtest
p597
sI596
Vthine
p598
sI597
Vthink
p599
sI598
Vthirst
p600
sI599
Vthro'
p601
sI600
Vthrong
p602
sI601
Vtil
p603
sI602
Vtold
p604
sI603
Vtook
p605
sI604
Vuse
p606
sI605
Vvice
p607
sI606
Vvive
p608
sI607
Vwalk
p609
sI608
Vwant
p610
sI609
Vward
p611
sI610
Vwatch
p612
sI611
Vwhile
p613
sI612
Vwhis
p614
sI613
Vwish
p615
sI614
Vwrought
p616
sI615
Vyond
p617
sI616
Vyoung
p618
sI617
V'mid
p619
sI618
Vail
p620
sI619
Vant
p621
sI620
Vask
p622
sI621
Vate
p623
sI622
Vbare
p624
sI623
Vbarks
p625
sI624
Vbear
p626
sI625
Vbeat
p627
sI626
Vbend
p628
sI627
Vbent
p629
sI628
Vbil
p630
sI629
Vbit
p631
sI630
Vbold
p632
sI631
Vborne
p633
sI632
Vboys
p634
sI633
Vbreaks
p635
sI634
Vbreast
p636
sI635
Vbreath
p637
sI636
Vbreathe
p638
sI637
Vbred
p639
sI638
Vbril
p640
sI639
Vbus
p641
sI640
Vca
p642
sI641
Vcat
p643
sI642
Vcatch
p644
sI643
Vcaught
p645
sI644
Vce
p646
sI645
Vcease
p647
sI646
Vcem
p648
sI647
Vcence
p649
sI648
Vces
p650
sI649
Vchain
p651
sI650
Vchange
p652
sI651
Vchant
p653
sI652
Vchasm
p654
sI653
Vchide
p655
sI654
Vchief
p656
sI655
Vchrist
p657
sI656
Vci
p658
sI657
Vcit
p659
sI658
Vclean
p660
sI659
Vclev
p661
sI660
Vclimb'st
p662
sI661
Vcoat
p663
sI662
Vcov
p664
sI663
Vcult
p665
sI664
Vcurse
p666
sI665
Vcy
p667
sI666
Vd
sI667
Vdan
p668
sI668
Vdanc
p669
sI669
Vdays
p670
sI670
Vdeath's
p671
sI671
Vded
p672
sI672
Vdeem'd
p673
sI673
Vdel
p674
sI674
Vdew
p675
sI675
Vdick
p676
sI676
Vdied
p677
sI677
Vdled
p678
sI678
Vdom
p679
sI679
Vdour
p680
sI680
Vdraw
p681
sI681
Vdrawn
p682
sI682
Vdread
p683
sI683
Vdreamed
p684
sI684
Vdriv
p685
sI685
Vdrunk
p686
sI686
Vdry
p687
sI687
Vdue
p688
sI688
Vdul
p689
sI689
Vdur
p690
sI690
Vdust
p691
sI691
Vels
p692
sI692
Velse
p693
sI693
Vent
p694
sI694
Ver's
p695
sI695
Vfad
p696
sI696
Vfade
p697
sI697
Vfae
p698
sI698
Vfaint
p699
sI699
Vfaith
p700
sI700
Vfal
p701
sI701
Vfea
p702
sI702
Vfears
p703
sI703
Vfed
p704
sI704
Vfin
p705
sI705
Vfine
p706
sI706
Vfire
p707
sI707
Vfive
p708
sI708
Vflame
p709
sI709
Vflee
p710
sI710
Vfleet
p711
sI711
Vflesh
p712
sI712
Vflies
p713
sI713
Vfol
p714
sI714
Vfond
p715
sI715
Vforce
p716
sI716
Vform
p717
sI717
Vfoun
p718
sI718
Vfount
p719
sI719
Vfreez
p720
sI720
Vfriends
p721
sI721
Vfro
p722
sI722
Vgal
p723
sI723
Vgasp
p724
sI724
Vgath
p725
sI725
Vgaz
p726
sI726
Vgels
p727
sI727
Vgi
p728
sI728
Vgim
p729
sI729
Vgin
p730
sI730
Vgins
p731
sI731
Vglad
p732
sI732
Vgloom
p733
sI733
Vgoves
p734
sI734
Vgrave
p735
sI735
Vground
p736
sI736
Vgrowth
p737
sI737
Vguisht
p738
sI738
Vgyre
p739
sI739
Vhail
p740
sI740
Vhang
p741
sI741
Vhaps
p742
sI742
Vhard
p743
sI743
Vhaste
p744
sI744
Vhate
p745
sI745
Vheaven's
p746
sI746
Vheld
p747
sI747
Vhelp
p748
sI748
Vhem
p749
sI749
Vhill's
p750
sI750
Vhoods
p751
sI751
Vhope
p752
sI752
Vhour
p753
sI753
Vies
p754
sI754
Vig
p755
sI755
Vil
p756
sI756
Vill
p757
sI757
Vjab
p758
sI758
Vjot
p759
sI759
Vjub
p760
sI760
Vked
p761
sI761
Vkeep
p762
sI762
Vkin
p763
sI763
Vkind
p764
sI764
Vkled
p765
sI765
Vknots
p766
sI766
Vknows
p767
sI767
Vkra
p768
sI768
Vlake
p769
sI769
Vlan
p770
sI770
Vlarge
p771
sI771
Vle
p772
sI772
Vlearn
p773
sI773
Vleaves
p774
sI774
Vlen
p775
sI775
Vlence
p776
sI776
Vler
p777
sI777
Vlev
p778
sI778
Vlia
p779
sI779
Vlig
p780
sI780
Vling
p781
sI781
Vlion
p782
sI782
Vlodg
p783
sI783
Vlookes
p784
sI784
Vlop
p785
sI785
Vlost
p786
sI786
Vlov'd
p787
sI787
Vloved
p788
sI788
Vloves
p789
sI789
Vmai
p790
sI790
Vmaid
p791
sI791
Vmains
p792
sI792
Vmal
p793
sI793
Vmanned
p794
sI794
Vmatch
p795
sI795
Vmaz
p796
sI796
Vmean
p797
sI797
Vmeas
p798
sI798
Vmed
p799
sI799
Vmeet
p800
sI800
Vmelt
p801
sI801
Vmend
p802
sI802
Vment
p803
sI803
Vmiles
p804
sI804
Vmim
p805
sI805
Vmin
p806
sI806
Vmir
p807
sI807
Vmit
p808
sI808
Vmock
p809
sI809
Vmon
p810
sI810
Vmorn
p811
sI811
Vmoun
p812
sI812
Vmous
p813
sI813
Vmov
p814
sI814
Vmoved
p815
sI815
Vmoves
p816
sI816
Vnar
p817
sI817
Vnay
p818
sI818
Vneeds
p819
sI819
Vnei
p820
sI820
Vnest
p821
sI821
Vnoon
p822
sI822
Vo'er
p823
sI823
Vov
p824
sI824
Vow
p825
sI825
Vpace
p826
sI826
Vpaine
p827
sI827
Vpearl
p828
sI828
Vpears
p829
sI829
Vpered
p830
sI830
Vpiece
p831
sI831
Vpile
p832
sI832
Vpoint
p833
sI833
Vpol
p834
sI834
Vpose
p835
sI835
Vpre
p836
sI836
Vpride
p837
sI837
Vpro
p838
sI838
Vprompt
p839
sI839
Vproved
p840
sI840
Vpy
p841
sI841
Vquaint
p842
sI842
Vrayne
p843
sI843
Vrea
p844
sI844
Vreade
p845
sI845
Vrent
p846
sI846
Vret
p847
sI847
Vroar
p848
sI848
Vron
p849
sI849
Vroom
p850
sI850
Vror
p851
sI851
Vrors
p852
sI852
Vroun
p853
sI853
Vrowes
p854
sI854
Vrows
p855
sI855
Vroy
p856
sI856
Vry's
p857
sI857
Vsa
p858
sI858
Vsage
p859
sI859
Vsave
p860
sI860
Vscorne
p861
sI861
Vscythe
p862
sI862
Vsedge
p863
sI863
Vseems
p864
sI864
Vselves
p865
sI865
Vsense
p866
sI866
Vsesse
p867
sI867
Vset
p868
sI868
Vshade
p869
sI869
Vshare
p870
sI870
Vsharpe
p871
sI871
Vsick
p872
sI872
Vsid
p873
sI873
Vsil
p874
sI874
Vsir
p875
sI875
Vslith
p876
sI876
Vsmell
p877
sI877
Vsmile
p878
sI878
Vsort
p879
sI879
Vsoul
p880
sI880
Vsouls
p881
sI881
Vspair
p882
sI882
Vsphere
p883
sI883
Vsplen
p884
sI884
Vstain
p885
sI885
Vstead
p886
sI886
Vsteeds
p887
sI887
Vstood
p888
sI888
Vstrain
p889
sI889
Vstreams
p890
sI890
Vstretched
p891
sI891
Vsuit
p892
sI892
Vsur
p893
sI893
Vswamp
p894
sI894
Vswell
p895
sI895
Vsword
p896
sI896
Vsyl
p897
sI897
Vta
p898
sI898
Vtakes
p899
sI899
Vtears
p900
sI900
Vtent
p901
sI901
Vthere's
p902
sI902
Vthin
p903
sI903
Vthoughts
p904
sI904
Vthrall
p905
sI905
Vthur
p906
sI906
Vtide
p907
sI907
Vtient
p908
sI908
Vtions
p909
sI909
Vtled
p910
sI910
Vton
p911
sI911
Vtor
p912
sI912
Vtoves
p913
sI913
Vtow
p914
sI914
Vtowards
p915
sI915
Vtown
p916
sI916
Vtread
p917
sI917
Vtree
p918
sI918
Vtri
p919
sI919
Vtries
p920
sI920
Vtron
p921
sI921
Vtrou
p922
sI922
Vtruth
p923
sI923
Vtune
p924
sI924
Vtured
p925
sI925
Vures
p926
sI926
Vus'
p927
sI927
Vused
p928
sI928
Vva
p929
sI929
Vval
p930
sI930
Vven's
p931
sI931
Vvent
p932
sI932
Vvest
p933
sI933
Vvexed
p934
sI934
Vvir
p935
sI935
Vvis
p936
sI936
Vwabe
p937
sI937
Vwag
p938
sI938
Vwail
p939
sI939
Vwak
p940
sI940
Vwanne
p941
sI941
Vwar
p942
sI942
Vwaste
p943
sI943
Vwave
p944
sI944
Vwaves
p945
sI945
Vwear
p946
sI946
Vwears
p947
sI947
Vweave
p948
sI948
Vweigh
p949
sI949
Vweight
p950
sI950
Vwhite
p951
sI951
Vwhy
p952
sI952
Vwide
p953
sI953
Vwinds
p954
sI954
Vwing
p955
sI955
Vwings
p956
sI956
Vwit
p957
sI957
Vwock
p958
sI958
Vwords
p959
sI959
Vworth
p960
sI960
Vwouldst
p961
sI961
Vwrin
p962
sI962
Vyea
p963
sI963
Vyears
p964
sI964
Vyel
p965
sI965
Vyes
p966
sI966
Vyouth
p967
sI967
Vys
p968
sI968
Vzen
p969
sI969
V''twas
p970
sI970
V'tis
p971
sI971
V'twould
p972
sI972
Vaim
p973
sI973
Vanc
p974
sI974
Vance
p975
sI975
Vard
p976
sI976
Varmes
p977
sI977
Vaught
p978
sI978
Vaut
p979
sI979
Vax
p980
sI980
Vaz
p981
sI981
Vbal
p982
sI982
Vbald
p983
sI983
Vban
p984
sI984
Vbanke
p985
sI985
Vbar
p986
sI986
Vbase
p987
sI987
Vbea
p988
sI988
Vbeams
p989
sI989
Vbears
p990
sI990
Vbeast
p991
sI991
Vbeds
p992
sI992
Vbees
p993
sI993
Vbel
p994
sI994
Vbell
p995
sI995
Vbelle
p996
sI996
Vben
p997
sI997
Vbet
p998
sI998
Vbi
p999
sI999
Vbics
p1000
sI1000
Vbid
p1001
sI1001
Vbig
p1002
sI1002
Vbings
p1003
sI1003
Vbird's
p1004
sI1004
Vbirth
p1005
sI1005
Vbite
p1006
sI1006
Vbl
p1007
sI1007
Vbla
p1008
sI1008
Vblank
p1009
sI1009
Vbleak
p1010
sI1010
Vbleared
p1011
sI1011
Vbles
p1012
sI1012
Vblithe
p1013
sI1013
Vbloom
p1014
sI1014
Vblows
p1015
sI1015
Vblush
p1016
sI1016
Vbly
p1017
sI1017
Vbode
p1018
sI1018
Vbolt
p1019
sI1019
Vbolts
p1020
sI1020
Vbonds
p1021
sI1021
Vbones
p1022
sI1022
Vbooks
p1023
sI1023
Vboon
p1024
sI1024
Vboot
p1025
sI1025
Vbors
p1026
sI1026
Vbot
p1027
sI1027
Vboughs
p1028
sI1028
Vbours'
p1029
sI1029
Vbow
p1030
sI1030
Vbrace
p1031
sI1031
Vbrag
p1032
sI1032
Vbrance
p1033
sI1033
Vbrand
p1034
sI1034
Vbraz
p1035
sI1035
Vbreeze
p1036
sI1036
Vbrim
p1037
sI1037
Vbrink
p1038
sI1038
Vbroi
p1039
sI1039
Vbrook
p1040
sI1040
Vbrooks
p1041
sI1041
Vbrought
p1042
sI1042
Vbrowed
p1043
sI1043
Vbrown
p1044
sI1044
Vbrute
p1045
sI1045
Vbu
p1046
sI1046
Vbuc
p1047
sI1047
Vbuck
p1048
sI1048
Vbuffed
p1049
sI1049
Vbuild
p1050
sI1050
Vbuilt
p1051
sI1051
Vbulk
p1052
sI1052
Vbun
p1053
sI1053
Vbur
p1054
sI1054
Vburned
p1055
sI1055
Vburns
p1056
sI1056
Vburnt
p1057
sI1057
Vburst
p1058
sI1058
Vbursts
p1059
sI1059
Vbyes
p1060
sI1060
Vbys
p1061
sI1061
Vcapped
p1062
sI1062
Vcar
p1063
sI1063
Vcare
p1064
sI1064
Vcarv
p1065
sI1065
Vcas
p1066
sI1066
Vcase
p1067
sI1067
Vcav
p1068
sI1068
Vcean
p1069
sI1069
Vceived
p1070
sI1070
Vcel
p1071
sI1071
Vcells
p1072
sI1072
Vcer
p1073
sI1073
Vchair
p1074
sI1074
Vcham
p1075
sI1075
Vchang
p1076
sI1076
Vcharged
p1077
sI1077
Vchas
p1078
sI1078
Vchaste
p1079
sI1079
Vche
p1080
sI1080
Vchee
p1081
sI1081
Vchieve
p1082
sI1082
Vchis
p1083
sI1083
Vchiv
p1084
sI1084
Vcho
p1085
sI1085
Vchor
p1086
sI1086
Vchryst
p1087
sI1087
Vchurch
p1088
sI1088
Vcied
p1089
sI1089
Vcies
p1090
sI1090
Vcim
p1091
sI1091
Vcir
p1092
sI1092
Vciv
p1093
sI1093
Vclad
p1094
sI1094
Vclasp
p1095
sI1095
Vclasped
p1096
sI1096
Vclasps
p1097
sI1097
Vclaws
p1098
sI1098
Vcleav
p1099
sI1099
Vcliff
p1100
sI1100
Vclimb
p1101
sI1101
Vclimbs
p1102
sI1102
Vclime
p1103
sI1103
Vclin
p1104
sI1104
Vclines
p1105
sI1105
Vclips
p1106
sI1106
Vclock
p1107
sI1107
Vclus
p1108
sI1108
Vco
p1109
sI1109
Vcoarse
p1110
sI1110
Vcocks
p1111
sI1111
Vcons
p1112
sI1112
Vcor
p1113
sI1113
Vcord
p1114
sI1114
Vcou
p1115
sI1115
Vcoun
p1116
sI1116
Vcove
p1117
sI1117
Vcover
p1118
sI1118
Vcrack
p1119
sI1119
Vcraft
p1120
sI1120
Vcraue
p1121
sI1121
Vcrawls
p1122
sI1122
Vcre
p1123
sI1123
Vcrea
p1124
sI1124
Vcred
p1125
sI1125
Vcree
p1126
sI1126
Vcrest
p1127
sI1127
Vcried
p1128
sI1128
Vcrim
p1129
sI1129
Vcrisp
p1130
sI1130
Vcrook
p1131
sI1131
Vcross
p1132
sI1132
Vcrossed
p1133
sI1133
Vcrushed
p1134
sI1134
Vcry
p1135
sI1135
Vcuck
p1136
sI1136
Vcun
p1137
sI1137
Vcup
p1138
sI1138
Vdac
p1139
sI1139
Vdaf
p1140
sI1140
Vdai
p1141
sI1141
Vdale
p1142
sI1142
Vdam
p1143
sI1143
Vdame
p1144
sI1144
Vdance
p1145
sI1145
Vdant
p1146
sI1146
Vdap
p1147
sI1147
Vdarn
p1148
sI1148
Vdarts
p1149
sI1149
Vdate
p1150
sI1150
Vdau
p1151
sI1151
Vdawn
p1152
sI1152
Vdeaf
p1153
sI1153
Vdee
p1154
sI1154
Vdeeds
p1155
sI1155
Vdeeps
p1156
sI1156
Vdeigned
p1157
sI1157
Vdels
p1158
sI1158
Vdens
p1159
sI1159
Vdents
p1160
sI1160
Vders
p1161
sI1161
Vdeur
p1162
sI1162
Vdic
p1163
sI1163
Vdies
p1164
sI1164
Vdil
p1165
sI1165
Vding
p1166
sI1166
Vdive
p1167
sI1167
Vdiz
p1168
sI1168
Vdles
p1169
sI1169
Vdoes
p1170
sI1170
Vdoest
p1171
sI1171
Vdong
p1172
sI1172
Vdoom
p1173
sI1173
Vdoors
p1174
sI1174
Vdotes
p1175
sI1175
Vdoubt
p1176
sI1176
Vdove
p1177
sI1177
Vdow
p1178
sI1178
Vdowne
p1179
sI1179
Vdrags
p1180
sI1180
Vdrenched
p1181
sI1181
Vdrew
p1182
sI1182
Vdring
p1183
sI1183
Vdriz
p1184
sI1184
Vdroop
p1185
sI1185
Vdrops
p1186
sI1186
Vdrowned
p1187
sI1187
Vdrum
p1188
sI1188
Vdu
p1189
sI1189
Vdumb
p1190
sI1190
Vdwelt
p1191
sI1191
Vdwin
p1192
sI1192
Vdy
p1193
sI1193
Ve'er
p1194
sI1194
Veant
p1195
sI1195
Vearth's
p1196
sI1196
Veas
p1197
sI1197
Veast
p1198
sI1198
Vec
p1199
sI1199
Vech
p1200
sI1200
Veight
p1201
sI1201
Velf
p1202
sI1202
Velling
p1203
sI1203
Vemn
p1204
sI1204
Ven'd
p1205
sI1205
Vends
p1206
sI1206
Vens'
p1207
sI1207
Verns
p1208
sI1208
Vers'
p1209
sI1209
Vert
p1210
sI1210
Verts
p1211
sI1211
Vet
p1212
sI1212
Vets
p1213
sI1213
Vev'n
p1214
sI1214
Veve's
p1215
sI1215
Vever
p1216
sI1216
Vevs
p1217
sI1217
Vews
p1218
sI1218
Vey
p1219
sI1219
Vfab
p1220
sI1220
Vfact
p1221
sI1221
Vfain
p1222
sI1222
Vfalse
p1223
sI1223
Vfash
p1224
sI1224
Vfate
p1225
sI1225
Vfe
p1226
sI1226
Vfeare
p1227
sI1227
Vfeat
p1228
sI1228
Vfeath
p1229
sI1229
Vfeel'st
p1230
sI1230
Vfeele
p1231
sI1231
Vfel
p1232
sI1232
Vfells
p1233
sI1233
Vfelt
p1234
sI1234
Vfence
p1235
sI1235
Vfend
p1236
sI1236
Vfic
p1237
sI1237
Vfields
p1238
sI1238
Vfier
p1239
sI1239
Vfight
p1240
sI1240
Vfind
p1241
sI1241
Vfir
p1242
sI1242
Vfis
p1243
sI1243
Vflam
p1244
sI1244
Vflash
p1245
sI1245
Vflat
p1246
sI1246
Vflect
p1247
sI1247
Vfles'
p1248
sI1248
Vfleur
p1249
sI1249
Vflight
p1250
sI1250
Vfling
p1251
sI1251
Vflock
p1252
sI1252
Vflour
p1253
sI1253
Vflow'rs
p1254
sI1254
Vflung
p1255
sI1255
Vfo
p1256
sI1256
Vfoe
p1257
sI1257
Vfoil
p1258
sI1258
Vfolds
p1259
sI1259
Vfools
p1260
sI1260
Vfoul
p1261
sI1261
Vfox
p1262
sI1262
Vfrab
p1263
sI1263
Vfraile
p1264
sI1264
Vfreck
p1265
sI1265
Vfret
p1266
sI1266
Vfru
p1267
sI1267
Vfu
p1268
sI1268
Vfuse
p1269
sI1269
Vga
p1270
sI1270
Vgainst
p1271
sI1271
Vgale
p1272
sI1272
Vgall
p1273
sI1273
Vgap
p1274
sI1274
Vgard
p1275
sI1275
Vgash
p1276
sI1276
Vgayne
p1277
sI1277
Vgeous
p1278
sI1278
Vgey
p1279
sI1279
Vghast
p1280
sI1280
Vgift
p1281
sI1281
Vgifts
p1282
sI1282
Vgir
p1283
sI1283
Vgirls'
p1284
sI1284
Vglade
p1285
sI1285
Vglass
p1286
sI1286
Vgled
p1287
sI1287
Vgles
p1288
sI1288
Vglid
p1289
sI1289
Vglim
p1290
sI1290
Vglo
p1291
sI1291
Vgloam
p1292
sI1292
Vglobe
p1293
sI1293
Vglor
p1294
sI1294
Vglove
p1295
sI1295
Vglow
p1296
sI1296
Vgor
p1297
sI1297
Vgot
p1298
sI1298
Vgown
p1299
sI1299
Vgrabe
p1300
sI1300
Vgrac
p1301
sI1301
Vgran
p1302
sI1302
Vgrasp
p1303
sI1303
Vgrate
p1304
sI1304
Vgraue
p1305
sI1305
Vgraves
p1306
sI1306
Vgrees
p1307
sI1307
Vgrief
p1308
sI1308
Vgrieues
p1309
sI1309
Vgrieve
p1310
sI1310
Vgroves
p1311
sI1311
Vgrow'st
p1312
sI1312
Vgrown
p1313
sI1313
Vguish
p1314
sI1314
Vgulft
p1315
sI1315
Vguns
p1316
sI1316
Vgy
p1317
sI1317
Vha
p1318
sI1318
Vhad'st
p1319
sI1319
Vhag
p1320
sI1320
Vhair
p1321
sI1321
Vham
p1322
sI1322
Vhamp
p1323
sI1323
Vhan
p1324
sI1324
Vhanged
p1325
sI1325
Vhark
p1326
sI1326
Vharsh
p1327
sI1327
Vhaue
p1328
sI1328
Vhaun
p1329
sI1329
Vhaunt
p1330
sI1330
Vhawk
p1331
sI1331
Vhay
p1332
sI1332
Vhaz
p1333
sI1333
Vhea
p1334
sI1334
Vhears
p1335
sI1335
Vhearse
p1336
sI1336
Vhearth
p1337
sI1337
Vheav'n
p1338
sI1338
Vheel
p1339
sI1339
Vhel
p1340
sI1340
Vhell
p1341
sI1341
Vhelpe
p1342
sI1342
Vhence
p1343
sI1343
Vherbs
p1344
sI1344
Vherds
p1345
sI1345
Vhills
p1346
sI1346
Vhint
p1347
sI1347
Vhoarse
p1348
sI1348
Vhol
p1349
sI1349
Vholds
p1350
sI1350
Vhop
p1351
sI1351
Vhor
p1352
sI1352
Vhorse
p1353
sI1353
Vhot
p1354
sI1354
Vhou
p1355
sI1355
Vhowl
p1356
sI1356
Vhur
p1357
sI1357
Vhurl
p1358
sI1358
Vi'll
p1359
sI1359
Vide
p1360
sI1360
Vier
p1361
sI1361
Vile
p1362
sI1362
Vinch
p1363
sI1363
Vioy
p1364
sI1364
Virs
p1365
sI1365
Vit's
p1366
sI1366
Vjaws
p1367
sI1367
Vject
p1368
sI1368
Vjew
p1369
sI1369
Vjour
p1370
sI1370
Vjous
p1371
sI1371
Vjoys
p1372
sI1372
Vjudge
p1373
sI1373
Vkeen
p1374
sI1374
Vkew
p1375
sI1375
Vkill
p1376
sI1376
Vkle
p1377
sI1377
Vknees
p1378
sI1378
Vknell
p1379
sI1379
Vknights
p1380
sI1380
Vknock
p1381
sI1381
Vknocked
p1382
sI1382
Vknown
p1383
sI1383
Vku
p1384
sI1384
Vlab
p1385
sI1385
Vlack
p1386
sI1386
Vlaid
p1387
sI1387
Vlair
p1388
sI1388
Vlamb
p1389
sI1389
Vlamp
p1390
sI1390
Vlamps
p1391
sI1391
Vlands
p1392
sI1392
Vlang
p1393
sI1393
Vlark
p1394
sI1394
Vlash
p1395
sI1395
Vlaugh
p1396
sI1396
Vlaughs
p1397
sI1397
Vlay
p1398
sI1398
Vlayes
p1399
sI1399
Vlead
p1400
sI1400
Vleaf
p1401
sI1401
Vlean
p1402
sI1402
Vleapt
p1403
sI1403
Vlearn'd
p1404
sI1404
Vlease
p1405
sI1405
Vleast
p1406
sI1406
Vled
p1407
sI1407
Vlend
p1408
sI1408
Vler's
p1409
sI1409
Vles
p1410
sI1410
Vlest
p1411
sI1411
Vligh
p1412
sI1412
Vlight's
p1413
sI1413
Vlil
p1414
sI1414
Vlimbs
p1415
sI1415
Vline
p1416
sI1416
Vlip
p1417
sI1417
Vliq
p1418
sI1418
Vlived
p1419
sI1419
Vlodge
p1420
sI1420
Vlodged
p1421
sI1421
Vloft
p1422
sI1422
Vloi
p1423
sI1423
Vloit
p1424
sI1424
Vlooh
p1425
sI1425
Vlooked
p1426
sI1426
Vlooks
p1427
sI1427
Vloom
p1428
sI1428
Vlooped
p1429
sI1429
Vloose
p1430
sI1430
Vlor
p1431
sI1431
Vlos
p1432
sI1432
Vlour
p1433
sI1433
Vlows
p1434
sI1434
Vlumph
p1435
sI1435
Vm
sI1436
Vmaids
p1436
sI1437
Vmain
p1437
sI1438
Vmaj
p1438
sI1439
Vmand
p1439
sI1440
Vmant
p1440
sI1441
Vmar
p1441
sI1442
Vmarch
p1442
sI1443
Vmark
p1443
sI1444
Vmask
p1444
sI1445
Vmass
p1445
sI1446
Vmat
p1446
sI1447
Vmate
p1447
sI1448
Vmea
p1448
sI1449
Vmead
p1449
sI1450
Vmeads
p1450
sI1451
Vmeek
p1451
sI1452
Vmeetes
p1452
sI1453
Vmen's
p1453
sI1454
Vments
p1454
sI1455
Vmers
p1455
sI1456
Vmightst
p1456
sI1457
Vmild
p1457
sI1458
Vmilk
p1458
sI1459
Vmill
p1459
sI1460
Vminds
p1460
sI1461
Vmis
p1461
sI1462
Vmissed
p1462
sI1463
Vmite
p1463
sI1464
Vmits
p1464
sI1465
Vmixed
p1465
sI1466
Vmocked
p1466
sI1467
Vmod
p1467
sI1468
Vmoil
p1468
sI1469
Vmoist
p1469
sI1470
Vmome
p1470
sI1471
Vmong
p1471
sI1472
Vmoods
p1472
sI1473
Vmoors
p1473
sI1474
Vmoth
p1474
sI1475
Vmoul
p1475
sI1476
Vmould
p1476
sI1477
Vmoulds
p1477
sI1478
Vmount
p1478
sI1479
Vmult
p1479
sI1480
Vmyre
p1480
sI1481
Vnace
p1481
sI1482
Vnai
p1482
sI1483
Vnall
p1483
sI1484
Vne
p1484
sI1485
Vnec
p1485
sI1486
Vneck
p1486
sI1487
Vneed
p1487
sI1488
Vner
p1488
sI1489
Vness'
p1489
sI1490
Vneth
p1490
sI1491
Vney
p1491
sI1492
Vnice
p1492
sI1493
Vnied
p1493
sI1494
Vnigh
p1494
sI1495
Vning's
p1495
sI1496
Vnit
p1496
sI1497
Vnoes
p1497
sI1498
Vnoise
p1498
sI1499
Vnook
p1499
sI1500
Vnorth
p1500
sI1501
Vnough
p1501
sI1502
Vnour
p1502
sI1503
Vnuns
p1503
sI1504
Vnut
p1504
sI1505
Vnymphs
p1505
sI1506
Voak
p1506
sI1507
Vob
p1507
sI1508
Voc
p1508
sI1509
Voft
p1509
sI1510
Voil
p1510
sI1511
Vol
p1511
sI1512
Vond
p1512
sI1513
Voo
p1513
sI1514
Vooze
p1514
sI1515
Vors
p1515
sI1516
Vou
p1516
sI1517
Vow'st
p1517
sI1518
Vowl
p1518
sI1519
Vox
p1519
sI1520
Voz
p1520
sI1521
Vpac
p1521
sI1522
Vpag
p1522
sI1523
Vpain
p1523
sI1524
Vpaint
p1524
sI1525
Vpall
p1525
sI1526
Vpane
p1526
sI1527
Vpare
p1527
sI1528
Vpass'd
p1528
sI1529
Vpasse
p1529
sI1530
Vpaused
p1530
sI1531
Vpave
p1531
sI1532
Vpay
p1532
sI1533
Vpays
p1533
sI1534
Vpeace
p1534
sI1535
Vpeak
p1535
sI1536
Vpear
p1536
sI1537
Vpearls
p1537
sI1538
Vpeck
p1538
sI1539
Vped
p1539
sI1540
Vpeo
p1540
sI1541
Vpest
p1541
sI1542
Vpests
p1542
sI1543
Vpet
p1543
sI1544
Vph'rous
p1544
sI1545
Vpha
p1545
sI1546
Vphes
p1546
sI1547
Vphin
p1547
sI1548
Vphire
p1548
sI1549
Vpho
p1549
sI1550
Vpic
p1550
sI1551
Vpid
p1551
sI1552
Vpie
p1552
sI1553
Vpier
p1553
sI1554
Vpiled
p1554
sI1555
Vpined
p1555
sI1556
Vplac
p1556
sI1557
Vplan
p1557
sI1558
Vplant
p1558
sI1559
Vpleased
p1559
sI1560
Vpled
p1560
sI1561
Vples
p1561
sI1562
Vplies
p1562
sI1563
Vpling
p1563
sI1564
Vplo
p1564
sI1565
Vplod
p1565
sI1566
Vplough
p1566
sI1567
Vplume
p1567
sI1568
Vplun
p1568
sI1569
Vpon
p1569
sI1570
Vpoor
p1570
sI1571
Vpor
p1571
sI1572
Vpost
p1572
sI1573
Vpour'd
p1573
sI1574
Vpraise
p1574
sI1575
Vpray
p1575
sI1576
Vprayers
p1576
sI1577
Vpress'd
p1577
sI1578
Vpriest
p1578
sI1579
Vprime
p1579
sI1580
Vprin
p1580
sI1581
Vprop
p1581
sI1582
Vproud
p1582
sI1583
Vprove
p1583
sI1584
Vprow
p1584
sI1585
Vpull
p1585
sI1586
Vpulse
p1586
sI1587
Vpup
p1587
sI1588
Vpurl
p1588
sI1589
Vpush
p1589
sI1590
Vput
p1590
sI1591
Vqua
p1591
sI1592
Vqual
p1592
sI1593
Vquench
p1593
sI1594
Vqui
p1594
sI1595
Vquit
p1595
sI1596
Vrack
p1596
sI1597
Vracts
p1597
sI1598
Vraf
p1598
sI1599
Vrain
p1599
sI1600
Vrais'd
p1600
sI1601
Vran
p1601
sI1602
Vrang
p1602
sI1603
Vrant
p1603
sI1604
Vrare
p1604
sI1605
Vrat
p1605
sI1606
Vrath
p1606
sI1607
Vraths
p1607
sI1608
Vrav
p1608
sI1609
Vraves
p1609
sI1610
Vread
p1610
sI1611
Vreads
p1611
sI1612
Vreck
p1612
sI1613
Vreeds
p1613
sI1614
Vrein
p1614
sI1615
Vrel
p1615
sI1616
Vrev
p1616
sI1617
Vric
p1617
sI1618
Vrich
p1618
sI1619
Vridge
p1619
sI1620
Vriers
p1620
sI1621
Vries
p1621
sI1622
Vrill
p1622
sI1623
Vrills
p1623
sI1624
Vringed
p1624
sI1625
Vris
p1625
sI1626
Vrites
p1626
sI1627
Vroads
p1627
sI1628
Vroared
p1628
sI1629
Vrobe
p1629
sI1630
Vrobs
p1630
sI1631
Vrock
p1631
sI1632
Vrod
p1632
sI1633
Vrol
p1633
sI1634
Vroll
p1634
sI1635
Vrolled
p1635
sI1636
Vrolls
p1636
sI1637
Vroofs
p1637
sI1638
Vrook
p1638
sI1639
Vroots
p1639
sI1640
Vrough
p1640
sI1641
Vrous
p1641
sI1642
Vrowed
p1642
sI1643
Vrs
p1643
sI1644
Vru
p1644
sI1645
Vrung
p1645
sI1646
Vruns
p1646
sI1647
Vsag
p1647
sI1648
Vsails
p1648
sI1649
Vsak
p1649
sI1650
Vsake
p1650
sI1651
Vsal
p1651
sI1652
Vsalt
p1652
sI1653
Vsame
p1653
sI1654
Vsand
p1654
sI1655
Vsans
p1655
sI1656
Vsap
p1656
sI1657
Vsat
p1657
sI1658
Vsav
p1658
sI1659
Vsays
p1659
sI1660
Vscared
p1660
sI1661
Vscends
p1661
sI1662
Vscorn
p1662
sI1663
Vscours
p1663
sI1664
Vscratch
p1664
sI1665
Vscreen
p1665
sI1666
Vscries
p1666
sI1667
Vsculp
p1667
sI1668
Vseal
p1668
sI1669
Vseals
p1669
sI1670
Vseared
p1670
sI1671
Vseed
p1671
sI1672
Vseem
p1672
sI1673
Vsees
p1673
sI1674
Vseest
p1674
sI1675
Vseeth
p1675
sI1676
Vseize
p1676
sI1677
Vsel
p1677
sI1678
Vselfe
p1678
sI1679
Vsent
p1679
sI1680
Vserve
p1680
sI1681
Vses
p1681
sI1682
Vsess
p1682
sI1683
Vsessed
p1683
sI1684
Vsev
p1684
sI1685
Vsha
p1685
sI1686
Vshades
p1686
sI1687
Vshaft
p1687
sI1688
Vshak
p1688
sI1689
Vshakes
p1689
sI1690
Vshamed
p1690
sI1691
Vshapes
p1691
sI1692
Vshares
p1692
sI1693
Vsheer
p1693
sI1694
Vshep
p1694
sI1695
Vshes
p1695
sI1696
Vshi
p1696
sI1697
Vshin
p1697
sI1698
Vshod
p1698
sI1699
Vshook
p1699
sI1700
Vshot
p1700
sI1701
Vshou'd
p1701
sI1702
Vshoul
p1702
sI1703
Vshout
p1703
sI1704
Vshow
p1704
sI1705
Vshroud
p1705
sI1706
Vshrunk
p1706
sI1707
Vshun
p1707
sI1708
Vshuns
p1708
sI1709
Vshut
p1709
sI1710
Vshuts
p1710
sI1711
Vsides
p1711
sI1712
Vsigh
p1712
sI1713
Vsighed
p1713
sI1714
Vsight
p1714
sI1715
Vsights
p1715
sI1716
Vsilk
p1716
sI1717
Vsim
p1717
sI1718
Vsinge
p1718
sI1719
Vsings
p1719
sI1720
Vsions
p1720
sI1721
Vsired
p1721
sI1722
Vsive
p1722
sI1723
Vskate's
p1723
sI1724
Vskin
p1724
sI1725
Vslack
p1725
sI1726
Vslant
p1726
sI1727
Vsleepe
p1727
sI1728
Vsleeps
p1728
sI1729
Vslew
p1729
sI1730
Vslip
p1730
sI1731
Vsmall
p1731
sI1732
Vsmalle
p1732
sI1733
Vsmeared
p1733
sI1734
Vsmiles
p1734
sI1735
Vsmoke
p1735
sI1736
Vsmudge
p1736
sI1737
Vsnake
p1737
sI1738
Vsnatch
p1738
sI1739
Vsneer
p1739
sI1740
Vsnort
p1740
sI1741
Vsoar
p1741
sI1742
Vsoil
p1742
sI1743
Vsol
p1743
sI1744
Vsolve
p1744
sI1745
Vsoned
p1745
sI1746
Vsorb
p1746
sI1747
Vsore
p1747
sI1748
Vsoule
p1748
sI1749
Vsounds
p1749
sI1750
Vsource
p1750
sI1751
Vsouth
p1751
sI1752
Vspeak
p1752
sI1753
Vspears
p1753
sI1754
Vspeech
p1754
sI1755
Vspher
p1755
sI1756
Vspheres
p1756
sI1757
Vspi
p1757
sI1758
Vspied
p1758
sI1759
Vspikes
p1759
sI1760
Vspill
p1760
sI1761
Vspis
p1761
sI1762
Vsplit
p1762
sI1763
Vspong
p1763
sI1764
Vspout
p1764
sI1765
Vsprang
p1765
sI1766
Vspring
p1766
sI1767
Vsprung
p1767
sI1768
Vspun
p1768
sI1769
Vsta
p1769
sI1770
Vstair
p1770
sI1771
Vstake
p1771
sI1772
Vstalks
p1772
sI1773
Vstamped
p1773
sI1774
Vstan
p1774
sI1775
Vstands
p1775
sI1776
Vstarved
p1776
sI1777
Vstay
p1777
sI1778
Vsteals
p1778
sI1779
Vstee
p1779
sI1780
Vsteed
p1780
sI1781
Vsteep
p1781
sI1782
Vsticke
p1782
sI1783
Vstirred
p1783
sI1784
Vsto
p1784
sI1785
Vstone
p1785
sI1786
Vstones
p1786
sI1787
Vstorm
p1787
sI1788
Vstorms
p1788
sI1789
Vstraight
p1789
sI1790
Vstreamed
p1790
sI1791
Vstretch
p1791
sI1792
Vstrick
p1792
sI1793
Vstrid
p1793
sI1794
Vstrife
p1794
sI1795
Vstrike
p1795
sI1796
Vstrings
p1796
sI1797
Vstrong
p1797
sI1798
Vstrous
p1798
sI1799
Vstrove
p1799
sI1800
Vstruc
p1800
sI1801
Vstu
p1801
sI1802
Vstuff
p1802
sI1803
Vstut
p1803
sI1804
Vsub
p1804
sI1805
Vsuf
p1805
sI1806
Vsul
p1806
sI1807
Vsume
p1807
sI1808
Vsumed
p1808
sI1809
Vsup
p1809
sI1810
Vsured
p1810
sI1811
Vsures
p1811
sI1812
Vsurg
p1812
sI1813
Vsurge
p1813
sI1814
Vsurped
p1814
sI1815
Vswale
p1815
sI1816
Vsweeps
p1816
sI1817
Vswer
p1817
sI1818
Vswing
p1818
sI1819
Vswoon
p1819
sI1820
Vtack
p1820
sI1821
Vtail
p1821
sI1822
Vtained
p1822
sI1823
Vtains
p1823
sI1824
Vtalked
p1824
sI1825
Vtall
p1825
sI1826
Vtant
p1826
sI1827
Vtap
p1827
sI1828
Vtar
p1828
sI1829
Vtask
p1829
sI1830
Vtasks
p1830
sI1831
Vte
p1831
sI1832
Vtear
p1832
sI1833
Vtem
p1833
sI1834
Vtend
p1834
sI1835
Vter'd
p1835
sI1836
Vthat's
p1836
sI1837
Vthawed
p1837
sI1838
Vthence
p1838
sI1839
Vther'd
p1839
sI1840
Vthow
p1840
sI1841
Vthree
p1841
sI1842
Vthrew
p1842
sI1843
Vthrice
p1843
sI1844
Vthroat
p1844
sI1845
Vthrob
p1845
sI1846
Vthrow
p1846
sI1847
Vthrown
p1847
sI1848
Vthru
p1848
sI1849
Vthrush
p1849
sI1850
Vthwart
p1850
sI1851
Vti
p1851
sI1852
Vtial
p1852
sI1853
Vtic
p1853
sI1854
Vtience
p1854
sI1855
Vtile
p1855
sI1856
Vtique
p1856
sI1857
Vtire
p1857
sI1858
Vtis
p1858
sI1859
Vtly
p1859
sI1860
Vtoil
p1860
sI1861
Vtomb
p1861
sI1862
Vtoms
p1862
sI1863
Vtors
p1863
sI1864
Vtouch
p1864
sI1865
Vtowers
p1865
sI1866
Vtracks
p1866
sI1867
Vtrade
p1867
sI1868
Vtral
p1868
sI1869
Vtram
p1869
sI1870
Vtrees
p1870
sI1871
Vtrem
p1871
sI1872
Vtremes
p1872
sI1873
Vtress
p1873
sI1874
Vtrest
p1874
sI1875
Vtrib
p1875
sI1876
Vtrimmed
p1876
sI1877
Vtrips
p1877
sI1878
Vtro
p1878
sI1879
Vtrols
p1879
sI1880
Vtroth
p1880
sI1881
Vtrum
p1881
sI1882
Vtrust
p1882
sI1883
Vtter
p1883
sI1884
Vtu
p1884
sI1885
Vtue
p1885
sI1886
Vtul
p1886
sI1887
Vtur
p1887
sI1888
Vturbed
p1888
sI1889
Vtures
p1889
sI1890
Vturned
p1890
sI1891
Vtween
p1891
sI1892
Vtwelve
p1892
sI1893
Vtwice
p1893
sI1894
Vtwist
p1894
sI1895
Vtyl
p1895
sI1896
Vuage
p1896
sI1897
Vui
p1897
sI1898
Vuid
p1898
sI1899
Vult
p1899
sI1900
Vumn
p1900
sI1901
Vumph
p1901
sI1902
Vurs
p1902
sI1903
Vut
p1903
sI1904
Vute
p1904
sI1905
Vv
sI1906
Vvale
p1905
sI1907
Vvan
p1906
sI1908
Vvast
p1907
sI1909
Vvault
p1908
sI1910
Vvaunt
p1909
sI1911
Vveiled
p1910
sI1912
Vveins
p1911
sI1913
Vvens
p1912
sI1914
Vvent's
p1913
sI1915
Vvest's
p1914
sI1916
Vvide
p1915
sI1917
Vvil
p1916
sI1918
Vvines
p1917
sI1919
Vvn
p1918
sI1920
Vvoic
p1919
sI1921
Vvor
p1920
sI1922
Vvows
p1921
sI1923
Vvy
p1922
sI1924
Vwaits
p1923
sI1925
Vwake
p1924
sI1926
Vwalls
p1925
sI1927
Vwand'
p1926
sI1928
Vwarm
p1927
sI1929
Vwarm'd
p1928
sI1930
Vwarn
p1929
sI1931
Vwarp
p1930
sI1932
Vwast
p1931
sI1933
Vwatched
p1932
sI1934
Vwaue
p1933
sI1935
Vways'
p1934
sI1936
Vweak
p1935
sI1937
Vwealth
p1936
sI1938
Vweaned
p1937
sI1939
Vweav
p1938
sI1940
Vweb
p1939
sI1941
Vweep
p1940
sI1942
Vweeps
p1941
sI1943
Vwept
p1942
sI1944
Vwer
p1943
sI1945
Vwet
p1944
sI1946
Vwharf
p1945
sI1947
Vwhat's
p1946
sI1948
Vwheel
p1947
sI1949
Vwhence
p1948
sI1950
Vwhere'
p1949
sI1951
Vwhif
p1950
sI1952
Vwhip
p1951
sI1953
Vwhit
p1952
sI1954
Vwid
p1953
sI1955
Vwim
p1954
sI1956
Vwines
p1955
sI1957
Vwink
p1956
sI1958
Vwitch
p1957
sI1959
Vwoke
p1958
sI1960
Vwoods
p1959
sI1961
Vwor
p1960
sI1962
Vworks
p1961
sI1963
Vworlds
p1962
sI1964
Vworm
p1963
sI1965
Vworms
p1964
sI1966
Vwound
p1965
sI1967
Vwounds
p1966
sI1968
Vwove
p1967
sI1969
Vwreck
p1968
sI1970
Vwrit
p1969
sI1971
Vwyll
p1970
sI1972
Vwynde
p1971
sI1973
Vxome
p1972
sI1974
Vye
p1973
sI1975
Vyells
p1974
sI1976
Vyf
p1975
sI1977
Vyn
p1976
sI1978
Vyou'll
p1977
sI1979
Vyr
p1978
sI1980
Vzeph
p1979
sI1981
Vzling
p1980
sI1982
Vzone
p1981
sI1983
Vzy
p1982
ss.